0x00057bb4: ??_C@_1EG@DPGNFKGC@?$AAa?$AAp?$AAi?$AA?9?$AAm?$AAs?$AA?9?$AAw?$AAi?$AAn?$AA?9?$AAa?$AAp?$AAp?$AAm@
0x00057c28: ?state_case_normal_tchar@?$output_processor@_WV?$string_output_adapter@_W@__crt_stdio_output@@V?$standard_base@_WV?$string_output_adapter@_W@__crt_stdio_output@@@2@@__crt_stdio_output@@AEAA_N_W@Z
0x00057cfc: ??B?$__crt_unique_heap_ptr@DU__crt_internal_free_policy@@@@QEBA_NXZ
0x00057d50: __p__wcmdln
0x00057d6c: wcsncmp
0x00057d84: ??_C@_09EEKGDCPH@?$DMunknown?$DO@
0x00057db4: ?type_case_Z@?$output_processor@_WV?$stream_output_adapter@_W@__crt_stdio_output@@V?$format_validation_base@_WV?$stream_output_adapter@_W@__crt_stdio_output@@@2@@__crt_stdio_output@@AEAA_NXZ
0x00057e84: ?state_case_precision@?$output_processor@DV?$stream_output_adapter@D@__crt_stdio_output@@V?$positional_parameter_base@DV?$stream_output_adapter@D@__crt_stdio_output@@@2@@__crt_stdio_output@@AEAA_NXZ
0x00057f5c: __acrt_initialize_lowio
0x00057f84: ??_R3pcharNode@@8
0x00057fa4: ?write_string@?$string_output_adapter@D@__crt_stdio_output@@QEBAXQEBDHQEAHAEAV__crt_deferred_errno_cache@@@Z
0x00058020: ??$extract_argument_from_va_list@_K_J@?$positional_parameter_base@_WV?$string_output_adapter@_W@__crt_stdio_output@@@__crt_stdio_output@@IEAA_NAEA_J@Z
0x000580c8: ??B?$__crt_unique_heap_ptr@U__vcrt_ptd@@U__crt_internal_free_policy@@@@QEBA_NXZ
0x00058128: ??_C@_02NONPIBCD@?$HM?$HM@
0x00058154: ??_C@_1BE@FEDJNPIB@?$AAn?$AAo?$AAr?$AAw?$AAe?$AAg?$AAi?$AAa?$AAn@
0x000581a4: __acrt_lconv_static_null
0x000581cc: ?narrow_null_string@?$output_processor@DV?$string_output_adapter@D@__crt_stdio_output@@V?$positional_parameter_base@DV?$string_output_adapter@D@__crt_stdio_output@@@2@@__crt_stdio_output@@CAPEADXZ
0x000582a0: _ui64tow_s
0x000582bc: ??_C@_17IJPCKHK@?$AAJ?$AAu?$AAl@
0x000582ec: ??$?0_K$0A@@?$optional@_K@std@@QEAA@$$QEA_K@Z
0x00058328: ??_C@_1M@EPAJJAJF@?$AAu?$AAr?$AA?9?$AAp?$AAk@
0x00058364: ?release@?$__crt_unique_heap_ptr@EU__crt_internal_free_policy@@@@QEAAXXZ
0x000583bc: _mbstowcs_l
0x000583d8: ??_C@_1CE@DHMMHEPL@?$AAn?$AAo?$AAr?$AAw?$AAe?$AAg?$AAi?$AAa?$AAn?$AA?9?$AAn?$AAy?$AAn?$AAo?$AAr@
0x00058448: ??_C@_17CIKBIHLH@?$AAO?$AAC?$AAP@
0x00058478: _iswupper_l
0x00058494: ?getString@pairNode@@UEBAPEADPEAD0@Z
0x000584c8: ?state_case_dot@?$output_processor@DV?$string_output_adapter@D@__crt_stdio_output@@V?$positional_parameter_base@DV?$string_output_adapter@D@__crt_stdio_output@@@2@@__crt_stdio_output@@AEAA_NXZ
0x00058598: _fputwc_nolock
0x000585b8: ?wcspbrk@@YAPEA_WPEA_WPEB_W@Z
0x000585e4: __acrt_locale_free_monetary
0x00058610: ??_C@_1EO@FIHMJCLF@?$AAe?$AAx?$AAt?$AA?9?$AAm?$AAs?$AA?9?$AAw?$AAi?$AAn?$AA?9?$AAn?$AAt?$AAu?$AAs@
0x00058684: ??$extract_argument_from_va_list@G_J@?$positional_parameter_base@_WV?$stream_output_adapter@_W@__crt_stdio_output@@@__crt_stdio_output@@IEAA_NAEA_J@Z
0x00058728: ?validate_and_update_state_at_beginning_of_format_character@?$standard_base@DV?$stream_output_adapter@D@__crt_stdio_output@@@__crt_stdio_output@@IEAA_NXZ
0x000587d0: __acrt_AppPolicyGetShowDeveloperDiagnosticInternal
0x00058814: ??$extract_argument_from_va_list@_J_J@?$positional_parameter_base@_WV?$stream_output_adapter@_W@__crt_stdio_output@@@__crt_stdio_output@@IEAA_NAEA_J@Z
0x000588bc: __vcrt_FlsFree
0x000588dc: ?value@?$dual_state_global@PEAU__crt_multibyte_data@@@__crt_state_management@@QEAAAEAPEAU__crt_multibyte_data@@XZ
0x0005895c: __ascii_toupper
0x0005897c: ??_C@_1M@LGGJAPPB@?$AAh?$AAi?$AA?9?$AAI?$AAN@
0x000589b8: ??$extract_argument_from_va_list@F_J@?$standard_base@_WV?$stream_output_adapter@_W@__crt_stdio_output@@@__crt_stdio_output@@IEAA_NAEA_J@Z
0x00058a50: ??0bad_exception@std@@QEAA@XZ
0x00058a7c: __scrt_dllmain_before_initialize_c
0x00058ab0: ??_C@_15NGLOAKJC@?$AAf?$AAi@
0x00058adc: ?state_case_percent@?$output_processor@_WV?$string_output_adapter@_W@__crt_stdio_output@@V?$standard_base@_WV?$string_output_adapter@_W@__crt_stdio_output@@@2@@__crt_stdio_output@@AEAA_NXZ
0x00058ba8: RtlUnwind
0x00058bc0: ?compare_equals@?$__crt_simd_traits@$00E@@SA?AT__m256i@@T2@0@Z
0x00058c10: iswupper
0x00058c28: ?get_current_state_index@__crt_state_management@@YA_KAEBV__crt_scoped_get_last_error_reset@@@Z
0x00058c98: _CallSettingFrame_LookupContinuationIndex
0x00058cd0: ?setIsPinPtr@DName@@QEAAXXZ
0x00058cfc: ??_C@_02FJEHGPIO@?1?$DN@
0x00058d24: ??1?$__crt_simd_cleanup_guard@$00@@QEAA@XZ
0x00058d60: _statusfp
0x00058d78: ?type_case_p@?$output_processor@_WV?$stream_output_adapter@_W@__crt_stdio_output@@V?$standard_base@_WV?$stream_output_adapter@_W@__crt_stdio_output@@@2@@__crt_stdio_output@@AEAA_NXZ
0x00058e3c: ??1?$common_data@_W@__crt_stdio_output@@QEAA@XZ
0x00058e7c: ?get_parameter_type@?$positional_parameter_base@_WV?$string_output_adapter@_W@__crt_stdio_output@@@__crt_stdio_output@@CA?AW4parameter_type@12@_K@Z
0x00058f20: _putwc_nolock
0x00058f3c: __acrt_fenv_get_status
0x00058f64: ?BuildCatchObject@__FrameHandler3@@SAXPEAUEHExceptionRecord@@PEAXPEBU_s_HandlerType@@PEBU_s_CatchableType@@@Z
0x00058fe0: __xi_z
0x00058ff8: ?length@charNode@@UEBAHXZ
0x00059020: ??$type_case_integer_parse_into_buffer@I@?$output_processor@_WV?$string_output_adapter@_W@__crt_stdio_output@@V?$positional_parameter_base@_WV?$string_output_adapter@_W@__crt_stdio_output@@@2@@__crt_stdio_output@@AEAAXII_N@Z
0x00059110: GetConsoleMode
0x00059130: ??_C@_03KHJOGHMM@exp@
0x00059154: UnhandledExceptionFilter
0x0005917c: ??_C@_08GPDDCMKI@public?3?5@
0x000591a8: ??_C@_1M@KJDONENM@?$AAa?$AAr?$AA?9?$AAs?$AAa@
0x000591e4: ??_C@_1M@KLMCELGA@?$AAu?$AAk?$AA?9?$AAu?$AAa@
0x00059220: ??$parse_integer_from_string@_J_W$$T@__crt_strtox@@YA_JQEB_W$$THQEAU__crt_locale_pointers@@@Z
0x0005928c: ??_C@_03BLEJJJBH@sin@
0x000592b0: GetCurrentProcessId
0x000592d4: ??_C@_1M@OKAHONE@?$AAa?$AAr?$AA?9?$AAS?$AAA@
0x00059310: strtoll
0x00059328: __acrt_FlsFree
0x00059348: ??_C@_04MIEPOIFP@July@
0x00059370: ??$parse_integer@_KV?$c_string_character_source@_W@__crt_strtox@@@__crt_strtox@@YA_KQEAU__crt_locale_pointers@@V?$c_string_character_source@_W@0@H_N@Z
0x00059418: ??$extract_argument_from_va_list@PEAUansi_string@?1??type_case_Z@?$output_processor@_WV?$stream_output_adapter@_W@__crt_stdio_output@@V?$standard_base@_WV?$stream_output_adapter@_W@__crt_stdio_output@@@2@@__crt_stdio_output@@AEAA_NXZ@PEAU1?1??234@AEAA_NXZ@@?$standard_base@_WV?$stream_output_adapter@_W@__crt_stdio_output@@@__crt_stdio_output@@IEAA_NAEAPEAUansi_string@?1??type_case_Z@?$output_processor@_WV?$stream_output_adapter@_W@__crt_stdio_output@@V?$standard_base@_WV?$stream_output_adapter@_W@__crt_stdio_output@@@2@@1@AEAA_NXZ@@Z
0x00059644: __isa_available
0x00059664: ___lc_collate_cp_func
0x00059688: ??$read_va_arg@PEAUansi_string@?1??type_case_Z@?$output_processor@_WV?$string_output_adapter@_W@__crt_stdio_output@@V?$standard_base@_WV?$string_output_adapter@_W@__crt_stdio_output@@@2@@__crt_stdio_output@@AEAA_NXZ@@__crt_stdio_output@@YAPEAUansi_string@?1??type_case_Z@?$output_processor@_WV?$string_output_adapter@_W@__crt_stdio_output@@V?$standard_base@_WV?$string_output_adapter@_W@__crt_stdio_output@@@2@@0@AEAA_NXZ@AEAPEAD@Z
0x00059848: ?__scrt_initialize_type_info@@YAXXZ
0x0005987c: ?DecompFuncInfo@FH4@@YA_JPEAEAEAUFuncInfo4@1@_KH_N@Z
0x000598c0: __p__mbcasemap
0x000598e0: ??_C@_0BA@LKIJLKPP@std?3?3nullptr_t?5@
0x00059918: ??_C@_1M@IMPFOPBG@?$AAr?$AAo?$AA?9?$AAR?$AAO@
0x00059954: __fpe_flt_rounds
0x00059974: ??$extract_argument_from_va_list@C_J@?$standard_base@_WV?$string_output_adapter@_W@__crt_stdio_output@@@__crt_stdio_output@@IEAA_NAEA_J@Z
0x00059a0c: ?type_case_X@?$output_processor@_WV?$string_output_adapter@_W@__crt_stdio_output@@V?$standard_base@_WV?$string_output_adapter@_W@__crt_stdio_output@@@2@@__crt_stdio_output@@AEAA_NXZ
0x00059ad0: ??_C@_1M@COAJPDHI@?$AAc?$AAs?$AA?9?$AAc?$AAz@
0x00059b0c: ??_C@_15EKOFJABL@?$AAe?$AAu@
0x00059b38: __acrt_stderr_buffer
0x00059b5c: __except_validate_context_record
0x00059b8c: ?getBasedType@UnDecorator@@CA?AVDName@@XZ
0x00059bc4: ??_C@_02FENAOKFI@?$CF?$DN@
0x00059bf0: ?wide_null_string@?$output_processor@_WV?$stream_output_adapter@_W@__crt_stdio_output@@V?$standard_base@_WV?$stream_output_adapter@_W@__crt_stdio_output@@@2@@__crt_stdio_output@@CAPEA_WXZ
0x00059cbc: ??1?$format_validation_base@DV?$stream_output_adapter@D@__crt_stdio_output@@@__crt_stdio_output@@QEAA@XZ
0x00059d34: ??_R4pairNode@@6B@
0x00059d58: ??_C@_1M@IKDBHEEM@?$AAd?$AAe?$AA?9?$AAc?$AAh@
0x00059d94: ??_C@_1CA@LLKGHBMF@?$AAs?$AAp?$AAa?$AAn?$AAi?$AAs?$AAh?$AA?9?$AAm?$AAe?$AAx?$AAi?$AAc?$AAa?$AAn@
0x00059e04: ?detach@?$__crt_unique_heap_ptr@U__crt_multibyte_data@@U__crt_internal_free_policy@@@@QEAAPEAU__crt_multibyte_data@@XZ
0x00059e8c: ??0?$output_processor@_WV?$stream_output_adapter@_W@__crt_stdio_output@@V?$positional_parameter_base@_WV?$stream_output_adapter@_W@__crt_stdio_output@@@2@@__crt_stdio_output@@QEAA@AEBV?$stream_output_adapter@_W@1@_KQEB_WQEAU__crt_locale_pointers@@QEAD@Z
0x00059f98: ??_C@_06LBBHFDDG@August@
0x00059fc0: __acrt_initialize_locks
0x00059fe8: ?dangerous_get_state_array@?$dual_state_global@P6AXPEB_W00I_K@Z@__crt_state_management@@QEAAPEAP6AXPEB_W00I_K@ZXZ
0x0005a068: ??B?$__crt_unique_heap_ptr@PEADU__crt_internal_free_policy@@@@QEBA_NXZ
0x0005a0c0: ?state_case_precision@?$output_processor@_WV?$stream_output_adapter@_W@__crt_stdio_output@@V?$format_validation_base@_WV?$stream_output_adapter@_W@__crt_stdio_output@@@2@@__crt_stdio_output@@AEAA_NXZ
0x0005a198: ??_C@_06GHPCKEAG@__eabi@
0x0005a1c0: __imp_FlushFileBuffers
0x0005a1e8: ??HDName@@QEBA?AV0@W4DNameStatus@@@Z
0x0005a21c: _wtol
0x0005a230: ?state_case_percent@?$output_processor@_WV?$stream_output_adapter@_W@__crt_stdio_output@@V?$standard_base@_WV?$stream_output_adapter@_W@__crt_stdio_output@@@2@@__crt_stdio_output@@AEAA_NXZ
0x0005a2fc: ??$extract_argument_from_va_list@G_J@?$standard_base@_WV?$string_output_adapter@_W@__crt_stdio_output@@@__crt_stdio_output@@IEAA_NAEA_J@Z
0x0005a394: ??_C@_1M@HPNHIDJI@?$AAj?$AAa?$AA?9?$AAJ?$AAP@
0x0005a3d0: ?validate_and_update_state_at_beginning_of_format_character@?$positional_parameter_base@_WV?$stream_output_adapter@_W@__crt_stdio_output@@@__crt_stdio_output@@IEAA_NXZ
0x0005a488: ?doPtr64@UnDecorator@@SAHXZ
0x0005a4b4: ?getLastEntry@HandlerMap@__FrameHandler3@@QEAAPEBU_s_HandlerType@@XZ
0x0005a508: ??$is_string_specifier@_W@?$positional_parameter_base@_WV?$string_output_adapter@_W@__crt_stdio_output@@@__crt_stdio_output@@CA_N_W@Z
0x0005a59c: ??$tcscpy_s@PEADAEB_KAEAPEAD@?$__crt_char_traits@D@@SAH$$QEAPEADAEB_KAEAPEAD@Z
0x0005a5fc: ??_C@_02MOLJINC@?3?3@
0x0005a620: _SetThrowImageBase
0x0005a644: ??$extract_argument_from_va_list@U_CRT_DOUBLE@@U1@@?$positional_parameter_base@DV?$stream_output_adapter@D@__crt_stdio_output@@@__crt_stdio_output@@IEAA_NAEAU_CRT_DOUBLE@@@Z
0x0005a700: ??_C@_0O@DPKOEFFH@bad?5exception@
0x0005a730: ??$output_debug_string@AEBQEB_W@?$__crt_char_traits@_W@@SAXAEBQEB_W@Z
0x0005a784: ?dangerous_get_state_array@?$dual_state_global@PEAU__crt_locale_data@@@__crt_state_management@@QEAAPEAPEAU__crt_locale_data@@XZ
0x0005a814: ?getECSUDataType@UnDecorator@@CA?AVDName@@XZ
0x0005a850: ??_C@_15IABLJNFO@?$AA?6?$AA?6@
0x0005a880: __acrt_wide_c_locale_string
0x0005a8ac: ??$__acrt_fenv_unshift_bits@W4__acrt_fenv_abstract_control@@@@YA?AW4__acrt_fenv_abstract_control@@W40@0I@Z
0x0005a928: ??0?$__crt_unique_heap_ptr@_WU__crt_internal_free_policy@@@@QEAA@QEA_W@Z
0x0005a980: ?fExplicitTemplateParams@UnDecorator@@0_NA
0x0005a9bc: __xt_a
0x0005a9d4: ?deallocate@__crt_win32_buffer_no_resizing@@SAXQEAXAEBV__crt_win32_buffer_empty_debug_info@@@Z
0x0005aa44: _CxxThrowException
0x0005aa68: __scrt_acquire_startup_lock
0x0005aa94: ?state_case_dot@?$output_processor@DV?$stream_output_adapter@D@__crt_stdio_output@@V?$positional_parameter_base@DV?$stream_output_adapter@D@__crt_stdio_output@@@2@@__crt_stdio_output@@AEAA_NXZ
0x0005ab64: ?type_case_c@?$output_processor@DV?$string_output_adapter@D@__crt_stdio_output@@V?$standard_base@DV?$string_output_adapter@D@__crt_stdio_output@@@2@@__crt_stdio_output@@AEAA_NXZ
0x0005ac24: ??$is_integral_specifier@D@?$positional_parameter_base@DV?$string_output_adapter@D@__crt_stdio_output@@@__crt_stdio_output@@CA_ND@Z
0x0005acb8: ??1?$__crt_unique_heap_ptr@DU__crt_internal_free_policy@@@@QEAA@XZ
0x0005ad0c: ?doAllocationModel@UnDecorator@@SAHXZ
0x0005ad40: ?type_case_integer@?$output_processor@DV?$stream_output_adapter@D@__crt_stdio_output@@V?$positional_parameter_base@DV?$stream_output_adapter@D@__crt_stdio_output@@@2@@__crt_stdio_output@@AEAA_NI_N@Z
0x0005ae18: __scrt_exe_initialize_mta
0x0005ae40: __acrt_DownlevelLCIDToLocaleName
0x0005ae70: ??0iterator@UWMap4@FH4@@QEAA@AEAV12@PEAE@Z
0x0005aeac: ??_C@_05HPCKOFNC@March@
0x0005aed4: ?__mbrtoc32_utf8@__crt_mbstring@@YA_KPEA_UPEBD_KPEAU_Mbstatet@@@Z
0x0005af24: ??_C@_1DI@IJCEHOCB@?$AAa?$AAp?$AAi?$AA?9?$AAm?$AAs?$AA?9?$AAw?$AAi?$AAn?$AA?9?$AAc?$AAo?$AAr?$AAe@
0x0005af98: ??_C@_07OFLPPHGP@__int32@
0x0005afc0: _set_fpsr
0x0005afd8: ??$__acrt_fenv_unshift_bits@W4__acrt_fenv_abstract_status@@@@YA?AW4__acrt_fenv_abstract_status@@W40@0I@Z
0x0005b050: __acrt_locale_free_numeric
0x0005b07c: ??$?0_K@?$_Optional_construct_base@_K@std@@QEAA@Uin_place_t@1@$$QEA_K@Z
0x0005b0d4: ??_C@_06BNJCAIGJ@double@
0x0005b0fc: __scrt_get_show_window_mode
0x0005b128: ??$extract_argument_from_va_list@U_CRT_DOUBLE@@U1@@?$standard_base@_WV?$string_output_adapter@_W@__crt_stdio_output@@@__crt_stdio_output@@IEAA_NAEAU_CRT_DOUBLE@@@Z
0x0005b1dc: ??_C@_0BN@MECKDCOJ@?5Class?5Hierarchy?5Descriptor?8@
0x0005b220: ??_C@_1M@HFFAHKAD@?$AAp?$AAt?$AA?9?$AAP?$AAT@
0x0005b25c: ??_C@_1O@GNNELBAP@?$AAd?$AAi?$AAv?$AA?9?$AAm?$AAv@
0x0005b2a0: ?state_case_precision@?$output_processor@_WV?$string_output_adapter@_W@__crt_stdio_output@@V?$positional_parameter_base@_WV?$string_output_adapter@_W@__crt_stdio_output@@@2@@__crt_stdio_output@@AEAA_NXZ
0x0005b37c: GetCurrentThreadId
0x0005b3a0: __scrt_default_matherr
0x0005b3c8: ?__acrt_stdio_reset_buffer@@YAXV__crt_stdio_stream@@@Z
0x0005b410: ?update_field_width@?$positional_parameter_base@DV?$stream_output_adapter@D@__crt_stdio_output@@@__crt_stdio_output@@IEAA_NXZ
0x0005b49c: _wcsnicoll_l
0x0005b4b8: ??1?$__crt_unique_heap_ptr@PEAU__crt_stdio_stream_data@@U__crt_internal_free_policy@@@@QEAA@XZ
0x0005b528: ??$is_string_specifier@_W@?$positional_parameter_base@_WV?$stream_output_adapter@_W@__crt_stdio_output@@@__crt_stdio_output@@CA_N_W@Z
0x0005b5bc: ??0?$__crt_unique_heap_ptr@Ulconv@@U__crt_internal_free_policy@@@@QEAA@QEAUlconv@@@Z
0x0005b620: atexit
0x0005b638: ??_C@_1BK@CDEIHOOP@?$AAs?$AAp?$AAa?$AAn?$AAi?$AAs?$AAh?$AA?9?$AAp?$AAe?$AAr?$AAu@
0x0005b698: ??$extract_argument_from_va_list@_W_W@?$standard_base@_WV?$string_output_adapter@_W@__crt_stdio_output@@@__crt_stdio_output@@IEAA_NAEA_W@Z
0x0005b734: ?BuildCatchObjectHelper@__FrameHandler3@@SAHPEAUEHExceptionRecord@@PEAXPEBU_s_HandlerType@@PEBU_s_CatchableType@@@Z
0x0005b7b8: _realloc_base
0x0005b7d4: __acrt_release_locale_ref
0x0005b7fc: ??_C@_1O@PAEOFKDI@?$AAs?$AAl?$AAo?$AAv?$AAa?$AAk@
0x0005b83c: ??_C@_0CL@FGIJHLCE@?$GAmanaged?5vector?5copy?5constructo@
0x0005b884: _wpgmptr
0x0005b89c: ?validate_stream_is_ansi_if_required@?$__acrt_stdio_char_traits@_W@@SA_NQEAU_iobuf@@@Z
0x0005b904: __castguard_check_failure_os_handled_fptr
0x0005b93c: ??1?$output_adapter_data@DV?$stream_output_adapter@D@__crt_stdio_output@@@__crt_stdio_output@@QEAA@XZ
0x0005b9b0: ??$data@D@formatting_buffer@__crt_stdio_output@@QEAAPEADXZ
0x0005b9fc: ?doMemberTypes@UnDecorator@@SAHXZ
0x0005ba2c: ?get_zero_pack@?$__crt_simd_pack_traits@$00@@SA?AT__m256i@@XZ
0x0005ba78: __imp_SetLastError
0x0005ba9c: ?__WinRTOutOfMemoryExceptionCallback@@3P6APEAXXZEA
0x0005bae0: wcschr
0x0005baf8: ??$peek_va_arg@E@__crt_stdio_output@@YAEPEAD@Z
0x0005bb38: ??_C@_1M@JEFHPGGB@?$AAa?$AAr?$AA?9?$AAK?$AAW@
0x0005bb74: __local_stdio_printf_options
0x0005bba0: __acrt_uninitialize_critical
0x0005bbcc: ??_C@_07JJNFCEND@October@
0x0005bbf4: ?state_transition_table@?$format_validation_base@_WV?$stream_output_adapter@_W@__crt_stdio_output@@@__crt_stdio_output@@KAAEBV?$spectre_mitigated_lookup_table@Ustate_transition_pair@__crt_stdio_output@@$0IA@@2@XZ
0x0005bcd8: ??_C@_1BC@GDGBMEMK@?$AAH?$AAH?$AA?3?$AAm?$AAm?$AA?3?$AAs?$AAs@
0x0005bd28: __acrt_execute_initializers
0x0005bd54: ??_C@_1M@GEEFALPE@?$AAd?$AAe?$AA?9?$AAL?$AAI@
0x0005bd90: ??_C@_15GEMIOCAG@?$AAj?$AAa@
0x0005bdbc: _lock_locales
0x0005bdd8: __imp_RtlCaptureContext
0x0005be00: ??_C@_1M@NIEJCJJA@?$AAj?$AAa?$AA?9?$AAj?$AAp@
0x0005be3c: ??0__crt_stdio_stream@@QEAA@QEAU_iobuf@@@Z
0x0005be78: ??_C@_0BM@PMGGMLDN@?$GAlocal?5static?5thread?5guard?8@
0x0005bec0: _handle_exc
0x0005bedc: ??_C@_1M@GJNLMHFD@?$AAA?$AAp?$AAr?$AAi?$AAl@
0x0005bf18: ?update_precision@?$positional_parameter_base@DV?$string_output_adapter@D@__crt_stdio_output@@@__crt_stdio_output@@IEAA_NXZ
0x0005bfa4: __scrt_set_unhandled_exception_filter
0x0005bfd8: GetModuleFileNameW
0x0005bffc: __AdjustPointer
0x0005c01c: ??$extract_argument_from_va_list@H_J@?$standard_base@DV?$string_output_adapter@D@__crt_stdio_output@@@__crt_stdio_output@@IEAA_NAEA_J@Z
0x0005c0b4: FindFirstFileExW
0x0005c0d4: _wcsnicmp_l
0x0005c0f0: ??_C@_0BD@JDLKDPAB@?$GAvbase?5destructor?8@
0x0005c12c: LCMapStringW
0x0005c148: ?add_multiply_carry@__crt_strtox@@YAIAEAIIII@Z
0x0005c188: ?validate@?$string_output_adapter@D@__crt_stdio_output@@QEBA_NXZ
0x0005c1d8: ?state_case_size@?$output_processor@DV?$stream_output_adapter@D@__crt_stdio_output@@V?$standard_base@DV?$stream_output_adapter@D@__crt_stdio_output@@@2@@__crt_stdio_output@@AEAA_NXZ
0x0005c29c: __acrt_GetEnabledXStateFeatures
0x0005c2cc: ?narrow_null_string@?$output_processor@DV?$stream_output_adapter@D@__crt_stdio_output@@V?$format_validation_base@DV?$stream_output_adapter@D@__crt_stdio_output@@@2@@__crt_stdio_output@@CAPEADXZ
0x0005c39c: ??_C@_1EK@MBDPDCGA@?$AAM?$AAi?$AAc?$AAr?$AAo?$AAs?$AAo?$AAf?$AAt?$AA?5?$AAV?$AAi?$AAs?$AAu?$AAa@
0x0005c40c: __acrt_locale_initialize_ctype
0x0005c43c: memmove
0x0005c454: ?pZNameList@UnDecorator@@0PEAVReplicator@@EA
0x0005c490: mbstowcs_s
0x0005c4ac: ??YDName@@QEAAAEAV0@AEBV0@@Z
0x0005c4d8: __acrt_initialize_new_handler
0x0005c504: ??_C@_1M@BMHNFIME@?$AAe?$AAn?$AA?9?$AAU?$AAS@
0x0005c540: TlsSetValue
0x0005c55c: ?getNumTryBlocks@TryBlockMap4@FH4@@QEAAIXZ
0x0005c598: ??$__InternalCxxFrameHandler@V__FrameHandler4@@@@YA?AW4_EXCEPTION_DISPOSITION@@PEAUEHExceptionRecord@@PEA_KPEAU_CONTEXT@@PEAU_xDISPATCHER_CONTEXT@@PEAUFuncInfo4@FH4@@H1E@Z
0x0005c654: _set_new_handler
0x0005c674: ?wide_null_string@?$output_processor@DV?$stream_output_adapter@D@__crt_stdio_output@@V?$format_validation_base@DV?$stream_output_adapter@D@__crt_stdio_output@@@2@@__crt_stdio_output@@CAPEA_WXZ
0x0005c744: ?validate_and_update_state_at_end_of_format_string@?$format_validation_base@DV?$stream_output_adapter@D@__crt_stdio_output@@@__crt_stdio_output@@IEBA_NXZ
0x0005c7ec: ?unset_flags@__crt_stdio_stream@@QEBA_NJ@Z
0x0005c828: __guard_memcpy_fptr
0x0005c84c: ??_C@_1M@GACBMHKE@?$AAh?$AAu?$AA?9?$AAh?$AAu@
0x0005c888: ?type_case_o@?$output_processor@_WV?$stream_output_adapter@_W@__crt_stdio_output@@V?$positional_parameter_base@_WV?$stream_output_adapter@_W@__crt_stdio_output@@@2@@__crt_stdio_output@@AEAA_NXZ
0x0005c958: _write_nolock
0x0005c974: mbrlen
0x0005c98c: ??_C@_1CE@GAJNDCKG@?$AAc?$AAh?$AAi?$AAn?$AAe?$AAs?$AAe?$AA?9?$AAs?$AAi?$AAn?$AAg?$AAa?$AAp?$AAo@
0x0005c9fc: ??_C@_1M@PMBNDPHD@?$AAh?$AAr?$AA?9?$AAb?$AAa@
0x0005ca38: __fpecode
0x0005ca50: ?getLastChar@pairNode@@UEBADXZ
0x0005ca80: ??_C@_1M@DPAGLNDH@?$AAe?$AAs?$AA?9?$AAn?$AAi@
0x0005cabc: ??B?$__crt_unique_heap_ptr@EU__crt_internal_free_policy@@@@QEBA_NXZ
0x0005cb10: _get_FMA3_enable
0x0005cb30: ?type_case_c_tchar@?$output_processor@DV?$string_output_adapter@D@__crt_stdio_output@@V?$positional_parameter_base@DV?$string_output_adapter@D@__crt_stdio_output@@@2@@__crt_stdio_output@@AEAA_ND@Z
0x0005cc04: __stdio_common_vfprintf_s
0x0005cc2c: ?type_case_X@?$output_processor@DV?$string_output_adapter@D@__crt_stdio_output@@V?$positional_parameter_base@DV?$string_output_adapter@D@__crt_stdio_output@@@2@@__crt_stdio_output@@AEAA_NXZ
0x0005ccf8: __vcrt_uninitialize_critical
0x0005cd24: ??_C@_1M@GHHLIKEI@?$AAe?$AAu?$AA?9?$AAe?$AAs@
0x0005cd60: _i64toa
0x0005cd78: ??_C@_03MKABNOCG@Dec@
0x0005cd9c: ?set_flag@?$output_processor@_WV?$string_output_adapter@_W@__crt_stdio_output@@V?$positional_parameter_base@_WV?$string_output_adapter@_W@__crt_stdio_output@@@2@@__crt_stdio_output@@AEAAXI@Z
0x0005ce6c: ??_C@_0BE@EODMJLIF@?$GAtemplate?9parameter@
0x0005cea8: ?get_parameter_type@?$positional_parameter_base@DV?$stream_output_adapter@D@__crt_stdio_output@@@__crt_stdio_output@@CA?AW4parameter_type@12@F@Z
0x0005cf48: ?data@?$__crt_win32_buffer@_WU__crt_win32_buffer_internal_dynamic_resizing@@@@QEAAPEA_WXZ
0x0005cfb0: ??1?$__crt_unique_heap_ptr@U__crt_locale_pointers@@U__crt_internal_free_policy@@@@QEAA@XZ
0x0005d018: __imp_FreeEnvironmentStringsW
0x0005d044: ??$extract_argument_from_va_list@_K_J@?$positional_parameter_base@DV?$stream_output_adapter@D@__crt_stdio_output@@@__crt_stdio_output@@IEAA_NAEA_J@Z
0x0005d0e8: ??$extract_argument_from_va_list@H_J@?$positional_parameter_base@_WV?$string_output_adapter@_W@__crt_stdio_output@@@__crt_stdio_output@@IEAA_NAEA_J@Z
0x0005d18c: ??_C@_1BC@JAOIIFKD@?$AAp?$AAr?$AA?9?$AAc?$AAh?$AAi?$AAn?$AAa@
0x0005d1d8: _setmode_nolock
0x0005d1f8: _ValidateImageBase
0x0005d21c: __acrt_exception_action_table
0x0005d248: ?_CallMemberFunction2@@YAXQEAX00H@Z
0x0005d27c: ??_C@_1M@IHBJJGG@?$AAn?$AAl?$AA?9?$AAN?$AAL@
0x0005d2b8: ??_C@_1M@FODLMICG@?$AAe?$AAn?$AA?9?$AAJ?$AAM@
0x0005d2f4: ??_C@_15BPIGNHCD@?$AAn?$AAo@
0x0005d320: ?find_next_state@?$output_processor@_WV?$string_output_adapter@_W@__crt_stdio_output@@V?$standard_base@_WV?$string_output_adapter@_W@__crt_stdio_output@@@2@@__crt_stdio_output@@AEBA?AW4state@2@_WW432@@Z
0x0005d3fc: ?compare_equals@?$__crt_simd_traits@$0A@G@@SA?AT__m128i@@T2@0@Z
0x0005d44c: _freea_crt
0x0005d468: ?validate_and_update_state_at_end_of_format_string@?$standard_base@DV?$stream_output_adapter@D@__crt_stdio_output@@@__crt_stdio_output@@IEBA_NXZ
0x0005d508: ??_C@_1M@OMLEIIJB@?$AAm?$AAi?$AA?9?$AAN?$AAZ@
0x0005d544: __imp_EnumSystemLocalesW
0x0005d56c: ?state_case_type@?$output_processor@_WV?$string_output_adapter@_W@__crt_stdio_output@@V?$standard_base@_WV?$string_output_adapter@_W@__crt_stdio_output@@@2@@__crt_stdio_output@@AEAA_NXZ
0x0005d634: ??_R2DNameStatusNode@@8
0x0005d65c: __acrt_fltout
0x0005d678: __imp_GetUserDefaultLCID
0x0005d6a0: ??$tcsncpy_s@PEAD_KAEBQEBDAEB_K@?$__crt_char_traits@D@@SAH$$QEAPEAD$$QEA_KAEBQEBDAEB_K@Z
0x0005d708: __acrt_eagerly_load_locale_apis
0x0005d738: _isleadbyte_fast_internal
0x0005d760: ??$extract_argument_from_va_list@I_J@?$standard_base@_WV?$string_output_adapter@_W@__crt_stdio_output@@@__crt_stdio_output@@IEAA_NAEA_J@Z
0x0005d7f8: __C_specific_handler
0x0005d81c: ?data@?$__crt_win32_buffer@DU__crt_win32_buffer_no_resizing@@@@QEAAPEADXZ
0x0005d874: ?detach@?$__crt_unique_heap_ptr@U__vcrt_ptd@@U__crt_internal_free_policy@@@@QEAAPEAU__vcrt_ptd@@XZ
0x0005d8e8: ?state_case_flag@?$output_processor@_WV?$stream_output_adapter@_W@__crt_stdio_output@@V?$format_validation_base@_WV?$stream_output_adapter@_W@__crt_stdio_output@@@2@@__crt_stdio_output@@AEAA_NXZ
0x0005d9bc: FreeLibrary
0x0005d9d8: ??$read_va_arg@G@__crt_stdio_output@@YAGAEAPEAD@Z
0x0005da18: ?update_field_width@?$standard_base@DV?$string_output_adapter@D@__crt_stdio_output@@@__crt_stdio_output@@IEAA_NXZ
0x0005da98: ??_C@_0BJ@DIBIJBHA@GetEnabledXStateFeatures@
0x0005dad4: ??H@YA?AVDName@@W4DNameStatus@@AEBV0@@Z
0x0005db0c: ??$?0AEBV?$stream_output_adapter@D@__crt_stdio_output@@AEB_KAEBQEBDAEBQEAU__crt_locale_pointers@@AEBQEAD@?$standard_base@DV?$stream_output_adapter@D@__crt_stdio_output@@@__crt_stdio_output@@IEAA@AEBV?$stream_output_adapter@D@1@AEB_KAEBQEBDAEBQEAU__crt_locale_pointers@@AEBQEAD@Z
0x0005dc34: ?has_crt_buffer@__crt_stdio_stream@@QEBA_NXZ
0x0005dc70: ?CxxCallCatchBlock@__FrameHandler3@@SAPEAXPEAU_EXCEPTION_RECORD@@@Z
0x0005dcc4: ??$extract_argument_from_va_list@PEAUansi_string@?1??type_case_Z@?$output_processor@DV?$string_output_adapter@D@__crt_stdio_output@@V?$standard_base@DV?$string_output_adapter@D@__crt_stdio_output@@@2@@__crt_stdio_output@@AEAA_NXZ@PEAU1?1??234@AEAA_NXZ@@?$standard_base@DV?$string_output_adapter@D@__crt_stdio_output@@@__crt_stdio_output@@IEAA_NAEAPEAUansi_string@?1??type_case_Z@?$output_processor@DV?$string_output_adapter@D@__crt_stdio_output@@V?$standard_base@DV?$string_output_adapter@D@__crt_stdio_output@@@2@@1@AEAA_NXZ@@Z
0x0005dee4: ??_C@_03MHOMLAJA@Wed@
0x0005df08: _ismbbkalnum_l
0x0005df28: ?pTemplateArgList@UnDecorator@@0PEAVReplicator@@EA
0x0005df6c: ??_C@_1M@GJINLBOK@?$AAa?$AAr?$AA?9?$AAL?$AAY@
0x0005dfa8: ?getUndecoratedName@UnDecorator@@QEAAPEADPEADH@Z
0x0005dfe8: ??$get_parameter_type@D@?$positional_parameter_base@_WV?$stream_output_adapter@_W@__crt_stdio_output@@@__crt_stdio_output@@CA?AW4parameter_type@01@PEAD@Z
0x0005e090: __stdio_common_vswprintf_p
0x0005e0bc: ??_C@_06COJIGPIB@lambda@
0x0005e0e4: ??_C@_1M@PGKJFFGL@?$AAe?$AAs?$AA?9?$AAM?$AAX@
0x0005e120: ??_C@_1M@KDBONEHP@?$AAe?$AAs?$AA?9?$AAC?$AAR@
0x0005e15c: ??_C@_1M@NIDIIPGF@?$AAe?$AAn?$AA?9?$AAb?$AAz@
0x0005e198: ?minimum_signed_value@__crt_strtox@@YAJK@Z
0x0005e1d4: ?type_case_c_tchar@?$output_processor@DV?$stream_output_adapter@D@__crt_stdio_output@@V?$format_validation_base@DV?$stream_output_adapter@D@__crt_stdio_output@@@2@@__crt_stdio_output@@AEAA_ND@Z
0x0005e2a4: GetCommandLineW
0x0005e2c4: __acrt_get_qualified_locale
0x0005e2f0: ??$puttc_nolock@AEB_WPEAU_iobuf@@@?$__crt_char_traits@_W@@SAGAEB_W$$QEAPEAU_iobuf@@@Z
0x0005e354: ??_C@_1M@FFFIGIGK@?$AAb?$AAg?$AA?9?$AAB?$AAG@
0x0005e390: ??_C@_1BE@EBOGMDOH@?$AAW?$AAe?$AAd?$AAn?$AAe?$AAs?$AAd?$AAa?$AAy@
0x0005e3e0: ??_C@_1M@MPJEJAJC@?$AAs?$AAv?$AA?9?$AAs?$AAe@
0x0005e41c: _chvalidchk_l
0x0005e438: __vcrt_uninitialize
0x0005e45c: ?type_case_d@?$output_processor@DV?$stream_output_adapter@D@__crt_stdio_output@@V?$format_validation_base@DV?$stream_output_adapter@D@__crt_stdio_output@@@2@@__crt_stdio_output@@AEAA_NXZ
0x0005e528: _pctype
0x0005e540: ?setIsArray@DName@@QEAAXXZ
0x0005e56c: ?getStringHelper@@YAPEADPEADPEBD1H@Z
0x0005e5a0: ??_C@_1BG@BECMDDJB@?$AAa?$AAz?$AA?9?$AAA?$AAZ?$AA?9?$AAL?$AAa?$AAt?$AAn@
0x0005e5f8: ?state_case_size@?$output_processor@_WV?$string_output_adapter@_W@__crt_stdio_output@@V?$standard_base@_WV?$string_output_adapter@_W@__crt_stdio_output@@@2@@__crt_stdio_output@@AEAA_NXZ
0x0005e6c0: ??$get_parameter_type@X@?$positional_parameter_base@DV?$string_output_adapter@D@__crt_stdio_output@@@__crt_stdio_output@@CA?AW4parameter_type@01@PEAX@Z
0x0005e768: ??_C@_1DG@IGOBAPBB@?$AAs?$AAp?$AAa?$AAn?$AAi?$AAs?$AAh?$AA?9?$AAd?$AAo?$AAm?$AAi?$AAn?$AAi?$AAc@
0x0005e7d8: ?__crt_rotate_pointer_value@@YA_K_KH@Z
0x0005e810: ?type_case_s@?$output_processor@DV?$string_output_adapter@D@__crt_stdio_output@@V?$positional_parameter_base@DV?$string_output_adapter@D@__crt_stdio_output@@@2@@__crt_stdio_output@@AEAA_NXZ
0x0005e8dc: ?type_case_o@?$output_processor@_WV?$stream_output_adapter@_W@__crt_stdio_output@@V?$standard_base@_WV?$stream_output_adapter@_W@__crt_stdio_output@@@2@@__crt_stdio_output@@AEAA_NXZ
0x0005e9a0: ??1?$output_processor@_WV?$stream_output_adapter@_W@__crt_stdio_output@@V?$standard_base@_WV?$stream_output_adapter@_W@__crt_stdio_output@@@2@@__crt_stdio_output@@QEAA@XZ
0x0005ea5c: ??_C@_1BG@BHJEBBGG@?$AAe?$AAn?$AAg?$AAl?$AAi?$AAs?$AAh?$AA?9?$AAn?$AAz@
0x0005eab4: __scrt_initialize_winrt
0x0005eadc: __NLG_Dispatch2
0x0005eafc: _strtol_l
0x0005eb14: ??_C@_15LCHLGJII@?$AAs?$AAl@
0x0005eb40: ??1?$__crt_unique_heap_ptr@U__crt_stdio_stream_data@@U__crt_internal_free_policy@@@@QEAA@XZ
0x0005ebac: ??_C@_1CE@KEEHCDB@?$AAs?$AAp?$AAa?$AAn?$AAi?$AAs?$AAh?$AA?9?$AAa?$AAr?$AAg?$AAe?$AAn?$AAt?$AAi@
0x0005ec1c: ?state_case_normal_common@?$output_processor@_WV?$stream_output_adapter@_W@__crt_stdio_output@@V?$standard_base@_WV?$stream_output_adapter@_W@__crt_stdio_output@@@2@@__crt_stdio_output@@AEAA_NXZ
0x0005ecf0: ?state_case_normal@?$output_processor@_WV?$string_output_adapter@_W@__crt_stdio_output@@V?$format_validation_base@_WV?$string_output_adapter@_W@__crt_stdio_output@@@2@@__crt_stdio_output@@AEAA_NXZ
0x0005edc4: ??1?$__crt_unique_handle_t@U__crt_findfile_traits@@@@QEAA@XZ
0x0005ee10: strrchr
0x0005ee28: fegetenv
0x0005ee40: ?release@?$__crt_unique_heap_ptr@DU__crt_public_free_policy@@@@QEAAXXZ
0x0005ee98: ?GetRangeOfTrysToCheck@__FrameHandler3@@SA?AU?$pair@Viterator@TryBlockMap@__FrameHandler3@@V123@@std@@AEAVTryBlockMap@1@HPEAU_xDISPATCHER_CONTEXT@@PEBU_s_FuncInfo@@H@Z
0x0005ef50: _wcstoull_l
0x0005ef6c: ?isEHs@__FrameHandler4@@SA_NPEAUFuncInfo4@FH4@@@Z
0x0005efac: ?get_zero_pack@?$__crt_simd_pack_traits@$0A@@@SA?AT__m128i@@XZ
0x0005effc: ??_C@_1M@OBGLJIPL@?$AAb?$AAe?$AA?9?$AAB?$AAY@
0x0005f038: ??_C@_1M@BABBICEC@?$AAi?$AAd?$AA?9?$AAi?$AAd@
0x0005f074: ??_C@_1EI@MPIAOHOC@?$AAa?$AAp?$AAi?$AA?9?$AAm?$AAs?$AA?9?$AAw?$AAi?$AAn?$AA?9?$AAc?$AAo?$AAr?$AAe@
0x0005f0e8: ??_C@_05KHLCHHI@?$GARTTI@
0x0005f110: ?get@?$__crt_unique_heap_ptr@U__crt_locale_pointers@@U__crt_internal_free_policy@@@@QEBAPEAU__crt_locale_pointers@@XZ
0x0005f194: ?StateFromIp@__FrameHandler3@@SAHPEBU_s_FuncInfo@@PEAU_xDISPATCHER_CONTEXT@@_K@Z
0x0005f1f4: ?is_positional_parameter_reappearance_consistent@?$positional_parameter_base@_WV?$string_output_adapter@_W@__crt_stdio_output@@@__crt_stdio_output@@AEAA_NAEBUparameter_data@12@W4parameter_type@12@_WW4length_modifier@2@@Z
0x0005f2e0: ??_C@_1CI@GAHAKKGP@?$AAs?$AAp?$AAa?$AAn?$AAi?$AAs?$AAh?$AA?9?$AAp?$AAu?$AAe?$AAr?$AAt?$AAo?$AA?5@
0x0005f350: ??$uninitialize@A6AXAEAPEAPEAD@Z@?$dual_state_global@PEAPEAD@__crt_state_management@@QEAAXA6AXAEAPEAPEAD@Z@Z
0x0005f3cc: __imp_ReadFile
0x0005f3ec: ?raw_name@type_info@@QEBAPEBDXZ
0x0005f41c: __stdio_common_vsnprintf_s
0x0005f448: ?state_case_normal_common@?$output_processor@_WV?$string_output_adapter@_W@__crt_stdio_output@@V?$positional_parameter_base@_WV?$string_output_adapter@_W@__crt_stdio_output@@@2@@__crt_stdio_output@@AEAA_NXZ
0x0005f528: ?type_case_o@?$output_processor@_WV?$string_output_adapter@_W@__crt_stdio_output@@V?$standard_base@_WV?$string_output_adapter@_W@__crt_stdio_output@@@2@@__crt_stdio_output@@AEAA_NXZ
0x0005f5ec: __p__environ
0x0005f608: __fma3_is_available
0x0005f62c: ?advance_to_next_pass@?$positional_parameter_base@DV?$stream_output_adapter@D@__crt_stdio_output@@@__crt_stdio_output@@IEAA_NXZ
0x0005f6bc: _get_invalid_parameter_handler
0x0005f6ec: CompareStringW
0x0005f70c: _ismbbkana
0x0005f728: ??0iterator@HandlerMap4@FH4@@QEAA@AEAV12@I@Z
0x0005f764: __ascii_towlower
0x0005f784: ?deallocate@__crt_win32_buffer_internal_dynamic_resizing@@SAXQEAXAEBV__crt_win32_buffer_empty_debug_info@@@Z
0x0005f800: ?narrow_null_string@?$output_processor@_WV?$string_output_adapter@_W@__crt_stdio_output@@V?$positional_parameter_base@_WV?$string_output_adapter@_W@__crt_stdio_output@@@2@@__crt_stdio_output@@CAPEADXZ
0x0005f8d8: __imp_HeapFree
0x0005f8f8: ??_C@_1M@LLODPCMM@?$AAe?$AAn?$AA?9?$AAu?$AAs@
0x0005f934: ??_C@_07CGJPFGJA@January@
0x0005f95c: ??_C@_02FODMEDOG@?$DM?$DM@
0x0005f988: _strtoui64
0x0005f9a4: __except_validate_jump_buffer_common
0x0005f9d8: ??_C@_09IPFBKMDL@nan?$CIsnan?$CJ@
0x0005fa08: ??_C@_08GNJGEPFN@February@
0x0005fa34: ??$type_case_integer_parse_into_buffer@I@?$output_processor@_WV?$stream_output_adapter@_W@__crt_stdio_output@@V?$format_validation_base@_WV?$stream_output_adapter@_W@__crt_stdio_output@@@2@@__crt_stdio_output@@AEAAXII_N@Z
0x0005fb20: ?validate_state_for_type_case_a@?$standard_base@DV?$string_output_adapter@D@__crt_stdio_output@@@__crt_stdio_output@@IEBA_NXZ
0x0005fbac: ?process@?$output_processor@DV?$string_output_adapter@D@__crt_stdio_output@@V?$format_validation_base@DV?$string_output_adapter@D@__crt_stdio_output@@@2@@__crt_stdio_output@@QEAAHXZ
0x0005fc70: __mb_cur_max
0x0005fc8c: ??$?0$00@pcharNode@@QEAA@PEBDHU?$StringLifeSelector@$00@@@Z
0x0005fcd8: ??_C@_02EHCHHCKH@?$DM?$DN@
0x0005fd04: ?state_case_width@?$output_processor@DV?$stream_output_adapter@D@__crt_stdio_output@@V?$positional_parameter_base@DV?$stream_output_adapter@D@__crt_stdio_output@@@2@@__crt_stdio_output@@AEAA_NXZ
0x0005fdd8: ??$write_multiple_characters@V?$stream_output_adapter@D@__crt_stdio_output@@D@__crt_stdio_output@@YAXAEBV?$stream_output_adapter@D@0@DHQEAH@Z
0x0005fe74: __acrt_EnumSystemLocalesEx
0x0005fea0: ??$extract_argument_from_va_list@PEAUansi_string@?1??type_case_Z@?$output_processor@DV?$string_output_adapter@D@__crt_stdio_output@@V?$positional_parameter_base@DV?$string_output_adapter@D@__crt_stdio_output@@@2@@__crt_stdio_output@@AEAA_NXZ@PEAU1?1??234@AEAA_NXZ@@?$standard_base@DV?$string_output_adapter@D@__crt_stdio_output@@@__crt_stdio_output@@IEAA_NAEAPEAUansi_string@?1??type_case_Z@?$output_processor@DV?$string_output_adapter@D@__crt_stdio_output@@V?$positional_parameter_base@DV?$string_output_adapter@D@__crt_stdio_output@@@2@@1@AEAA_NXZ@@Z
0x000600d8: ??_C@_07PEJMOBNF@FlsFree@
0x00060100: ?getEnumType@UnDecorator@@CA?AVDName@@XZ
0x00060138: ?multiply_by_power_of_ten@__crt_strtox@@YA_NAEAUbig_integer@1@I@Z
0x00060188: __acrt_invoke_user_matherr
0x000601b4: ??_C@_0CG@HLDDJMAG@?$GAeh?5vector?5copy?5constructor?5ite@
0x00060200: ??_C@_1CI@PAJPIOOD@?$AAc?$AAh?$AAi?$AAn?$AAe?$AAs?$AAe?$AA?9?$AAt?$AAr?$AAa?$AAd?$AAi?$AAt?$AAi@
0x00060270: ??_C@_1M@PMPEAILG@?$AAa?$AAr?$AA?9?$AAI?$AAQ@
0x000602ac: ?type_case_X@?$output_processor@DV?$string_output_adapter@D@__crt_stdio_output@@V?$standard_base@DV?$string_output_adapter@D@__crt_stdio_output@@@2@@__crt_stdio_output@@AEAA_NXZ
0x0006036c: GetConsoleOutputCP
0x00060390: _strnicoll_l
0x000603ac: ??_C@_1CI@LAPALJPP@?$AAs?$AAp?$AAa?$AAn?$AAi?$AAs?$AAh?$AA?9?$AAe?$AAl?$AA?5?$AAs?$AAa?$AAl?$AAv@
0x0006041c: ?maximum_signed_value@__crt_strtox@@YA_J_K@Z
0x00060458: ??_C@_02IGFCGPIL@?$HN?8@
0x00060480: _nstream
0x00060498: ??_C@_15NBPDDFIP@?$AA?$DN?$AA?$DL@
0x000604cc: __acrt_current_locale_data
0x000604f8: ?size@?$__crt_win32_buffer@_WU__crt_win32_buffer_internal_dynamic_resizing@@@@QEAAX_K@Z
0x00060560: ?type_case_n@?$output_processor@DV?$stream_output_adapter@D@__crt_stdio_output@@V?$positional_parameter_base@DV?$stream_output_adapter@D@__crt_stdio_output@@@2@@__crt_stdio_output@@AEAA_NXZ
0x0006062c: _handle_qnan2
0x00060648: ??_7pDNameNode@@6B@
0x0006066c: strtoumax
0x00060684: _register_thread_local_exe_atexit_callback
0x000606c0: ?get_parameter_type@?$positional_parameter_base@_WV?$string_output_adapter@_W@__crt_stdio_output@@@__crt_stdio_output@@CA?AW4parameter_type@12@U_CRT_DOUBLE@@@Z
0x00060770: __acrt_stdio_initializer
0x00060798: __stdio_common_vsprintf_p
0x000607c0: ?validate_state_for_type_case_a@?$standard_base@_WV?$stream_output_adapter@_W@__crt_stdio_output@@@__crt_stdio_output@@IEBA_NXZ
0x00060850: ??$extract_argument_from_va_list@_J_J@?$standard_base@_WV?$string_output_adapter@_W@__crt_stdio_output@@@__crt_stdio_output@@IEAA_NAEA_J@Z
0x000608ec: ??_C@_1M@FOPBFLOO@?$AAg?$AAu?$AA?9?$AAi?$AAn@
0x00060928: __stdio_common_vswprintf
0x00060950: ?type_case_p@?$output_processor@DV?$stream_output_adapter@D@__crt_stdio_output@@V?$standard_base@DV?$stream_output_adapter@D@__crt_stdio_output@@@2@@__crt_stdio_output@@AEAA_NXZ
0x00060a10: iswblank
0x00060a28: __acrt_InitializeCriticalSectionEx
0x00060a5c: _unlock_locales
0x00060a7c: ??$scratch_count@D@formatting_buffer@__crt_stdio_output@@QEBA_KXZ
0x00060acc: ??_R1A@?0A@EA@charNode@@8
0x00060af4: ??_R2pcharNode@@8
0x00060b14: ?state_case_normal_common@?$output_processor@DV?$stream_output_adapter@D@__crt_stdio_output@@V?$positional_parameter_base@DV?$stream_output_adapter@D@__crt_stdio_output@@@2@@__crt_stdio_output@@AEAA_NXZ
0x00060bf0: ?should_skip_type_state_output@?$standard_base@_WV?$string_output_adapter@_W@__crt_stdio_output@@@__crt_stdio_output@@IEBA_NXZ
0x00060c80: ??_C@_15NFICGAJK@?$AAi?$AAd@
0x00060cac: _set_wpgmptr
0x00060cc8: ?type_case_c_tchar@?$output_processor@DV?$string_output_adapter@D@__crt_stdio_output@@V?$format_validation_base@DV?$string_output_adapter@D@__crt_stdio_output@@@2@@__crt_stdio_output@@AEAA_ND@Z
0x00060d98: ??$extract_argument_from_va_list@G_J@?$standard_base@DV?$stream_output_adapter@D@__crt_stdio_output@@@__crt_stdio_output@@IEAA_NAEA_J@Z
0x00060e30: ?should_skip_type_state_output@?$standard_base@_WV?$stream_output_adapter@_W@__crt_stdio_output@@@__crt_stdio_output@@IEBA_NXZ
0x00060ec0: ??_C@_1M@FKIFEHPB@?$AAs?$AAk?$AA?9?$AAS?$AAK@
0x00060efc: ??_C@_1M@MPNDHLFK@?$AAs?$AAw?$AA?9?$AAk?$AAe@
0x00060f38: __acrt_initialize_stdio
0x00060f60: putwchar
0x00060f78: ??_C@_15GMFIMNFM@?$AAu?$AAs@
0x00060fa4: _clearfp
0x00060fbc: ?isValid@DName@@QEBAHXZ
0x00060fe4: _iswlower_l
0x00061000: _raise_exc_ex
0x0006101c: iswgraph
0x00061034: __acrt_locale_initialize_monetary
0x00061064: ??_C@_1BA@BALFACEM@?$AAC?$AAO?$AAN?$AAO?$AAU?$AAT?$AA$@
0x000610ac: ?initialize@?$dual_state_global@P6AHPEAU_exception@@@Z@__crt_state_management@@QEAAXQ6AHPEAU_exception@@@Z@Z
0x00061128: ??_C@_17GGIBDPIH@?$AAS?$AAa?$AAt@
0x00061158: wcscpy_s
0x00061170: _iswprint_l
0x0006118c: __acrt_LocaleNameToLCID
0x000611b4: ??_C@_05GKKHEGJL@frexp@
0x000611dc: ??_C@_07CLGGIAMF@wchar_t@
0x00061204: ??_C@_15CBKOMCOI@?$AAm?$AAn@
0x00061230: ??_R0?AVDNameNode@@@8
0x00061254: RaiseException
0x00061274: _calloc_base
0x00061290: _guard_check_icall_nop
0x000612b8: ??_C@_1M@HEGGPBFA@?$AAs?$AAe?$AA?9?$AAN?$AAO@
0x000612f4: ?state_case_normal_common@?$output_processor@_WV?$stream_output_adapter@_W@__crt_stdio_output@@V?$format_validation_base@_WV?$stream_output_adapter@_W@__crt_stdio_output@@@2@@__crt_stdio_output@@AEAA_NXZ
0x000613d0: ?restore_state@?$c_string_character_source@D@__crt_strtox@@QEAA_NQEBD@Z
0x00061428: ??$type_case_integer_parse_into_buffer@I@?$output_processor@_WV?$string_output_adapter@_W@__crt_stdio_output@@V?$standard_base@_WV?$string_output_adapter@_W@__crt_stdio_output@@@2@@__crt_stdio_output@@AEAAXII_N@Z
0x0006150c: _register_onexit_function
0x00061534: __BuildCatchObject
0x00061558: _isleadbyte_l
0x00061574: __imp_LoadLibraryExW
0x00061598: ?type_case_X@?$output_processor@DV?$stream_output_adapter@D@__crt_stdio_output@@V?$format_validation_base@DV?$stream_output_adapter@D@__crt_stdio_output@@@2@@__crt_stdio_output@@AEAA_NXZ
0x00061664: _fpreset
0x0006167c: ?get_parameter_type@?$positional_parameter_base@_WV?$stream_output_adapter@_W@__crt_stdio_output@@@__crt_stdio_output@@CA?AW4parameter_type@12@U_CRT_DOUBLE@@@Z
0x0006172c: ?getCHPEName@UnDecorator@@QEAAPEADPEADH@Z
0x00061764: _seh_filter_exe
0x00061784: __acrt_LCMapStringEx
0x000617a8: __imp_FindFirstFileExW
0x000617d0: ?release@?$__crt_unique_heap_ptr@U__crt_lc_time_data@@U__crt_internal_free_policy@@@@QEAAXXZ
0x0006183c: __acrt_initial_locale_pointers
0x0006186c: ??_C@_1M@IIDEOLLL@?$AAe?$AAs?$AA?9?$AAs?$AAv@
0x000618a8: ?type_case_x@?$output_processor@_WV?$stream_output_adapter@_W@__crt_stdio_output@@V?$positional_parameter_base@_WV?$stream_output_adapter@_W@__crt_stdio_output@@@2@@__crt_stdio_output@@AEAA_NXZ
0x00061978: ??_C@_1BC@CHBCPFPI@?$AAp?$AAr?$AA?5?$AAc?$AAh?$AAi?$AAn?$AAa@
0x000619c4: ?get@?$__crt_unique_heap_ptr@XU__crt_internal_free_policy@@@@QEBAPEAXXZ
0x00061a1c: ??_C@_1M@PNBLONPJ@?$AAs?$AAk?$AA?9?$AAs?$AAk@
0x00061a58: ??_C@_02HBOOOICD@?9?$DO@
0x00061a80: _CT??_R0?AVexception@std@@@8??0exception@std@@QEAA@AEBV01@@Z24
0x00061ad0: ??_C@_1M@BMGIGLIF@?$AAe?$AAs?$AA?9?$AAD?$AAO@
0x00061b0c: IsDebuggerPresent
0x00061b2c: __pctype_func
0x00061b48: ??_C@_1BG@NFKKMAFG@?$AAb?$AAs?$AA?9?$AAB?$AAA?$AA?9?$AAL?$AAa?$AAt?$AAn@
0x00061ba0: ??_C@_1EM@DILCGIIO@?$AAa?$AAp?$AAi?$AA?9?$AAm?$AAs?$AA?9?$AAw?$AAi?$AAn?$AA?9?$AAc?$AAo?$AAr?$AAe@
0x00061c14: ??_C@_1M@JKEOHLDK@?$AAf?$AAr?$AA?9?$AAb?$AAe@
0x00061c50: ??_7bad_exception@std@@6B@
0x00061c7c: FindClose
0x00061c94: ?type_case_p@?$output_processor@DV?$string_output_adapter@D@__crt_stdio_output@@V?$positional_parameter_base@DV?$string_output_adapter@D@__crt_stdio_output@@@2@@__crt_stdio_output@@AEAA_NXZ
0x00061d60: ??_C@_03ONILCKOB@_yn@
0x00061d84: ??$?0AEBV?$stream_output_adapter@_W@__crt_stdio_output@@AEB_KAEBQEB_WAEBQEAU__crt_locale_pointers@@AEBQEAD@?$positional_parameter_base@_WV?$stream_output_adapter@_W@__crt_stdio_output@@@__crt_stdio_output@@IEAA@AEBV?$stream_output_adapter@_W@1@AEB_KAEBQEB_WAEBQEAU__crt_locale_pointers@@AEBQEAD@Z
0x00061ebc: ??$read_va_arg@PEAUansi_string@?1??type_case_Z@?$output_processor@_WV?$stream_output_adapter@_W@__crt_stdio_output@@V?$standard_base@_WV?$stream_output_adapter@_W@__crt_stdio_output@@@2@@__crt_stdio_output@@AEAA_NXZ@@__crt_stdio_output@@YAPEAUansi_string@?1??type_case_Z@?$output_processor@_WV?$stream_output_adapter@_W@__crt_stdio_output@@V?$standard_base@_WV?$stream_output_adapter@_W@__crt_stdio_output@@@2@@0@AEAA_NXZ@AEAPEAD@Z
0x0006207c: ??_C@_0CA@GCEOPDGL@?$GAeh?5vector?5destructor?5iterator?8@
0x000620c8: ??_C@_1M@LGPJHNJH@?$AAz?$AAu?$AA?9?$AAZ?$AAA@
0x00062104: ??_C@_0BK@CFCOFLF@?5Complete?5Object?5Locator?8@
0x00062144: __acrt_CompareStringEx
0x0006216c: ??_C@_1CG@IOBJPACO@?$AAc?$AAh?$AAi?$AAn?$AAe?$AAs?$AAe?$AA?9?$AAs?$AAi?$AAm?$AAp?$AAl?$AAi?$AAf@
0x000621dc: ?update_precision@?$positional_parameter_base@_WV?$string_output_adapter@_W@__crt_stdio_output@@@__crt_stdio_output@@IEAA_NXZ
0x00062268: ?unset_flag@?$output_processor@_WV?$stream_output_adapter@_W@__crt_stdio_output@@V?$standard_base@_WV?$stream_output_adapter@_W@__crt_stdio_output@@@2@@__crt_stdio_output@@AEAAXI@Z
0x0006232c: ?getMemoryWithoutBuffer@_HeapManager@@QEAAPEAX_K@Z
0x00062370: __imp_GetFileSizeEx
0x00062394: ?validate_and_update_state_at_end_of_format_string@?$standard_base@_WV?$string_output_adapter@_W@__crt_stdio_output@@@__crt_stdio_output@@IEBA_NXZ
0x00062438: ??$__acrt_fenv_shift_bits@W4__acrt_fenv_abstract_control@@@@YA?AW4__acrt_fenv_abstract_control@@W40@0I@Z
0x000624b0: __acrt_locale_free_lc_time_if_unreferenced
0x000624ec: _is_exception_typeof
0x00062510: ??1?$__crt_unique_heap_ptr@GU__crt_internal_free_policy@@@@QEAA@XZ
0x00062564: ?wide_character_to_digit@__crt_strtox@@YAH_W@Z
0x000625a4: ?unset_flag@?$output_processor@DV?$string_output_adapter@D@__crt_stdio_output@@V?$format_validation_base@DV?$string_output_adapter@D@__crt_stdio_output@@@2@@__crt_stdio_output@@AEAAXI@Z
0x0006266c: ??_C@_09IFPLHPGF@?$GAvftable?8@
0x0006269c: ??_C@_04FJHINJAO@tanh@
0x000626c4: ?__scrt_uninitialize_type_info@@YAXXZ
0x000626f8: __scrt_get_dyn_tls_dtor_callback
0x00062728: ?is_valid@?$__crt_unique_heap_ptr@U__crt_locale_pointers@@U__crt_internal_free_policy@@@@QEBA_NXZ
0x00062798: qsort
0x000627ac: ??_C@_1M@MKDBIIJI@?$AAe?$AAs?$AA?9?$AAB?$AAO@
0x000627e8: __std_exception_copy
0x0006280c: ?release@?$__crt_unique_heap_ptr@U__crt_locale_data@@U__crt_internal_free_policy@@@@QEAAXXZ
0x00062878: ?getString@DName@@QEBAPEADPEAD0@Z
0x000628a8: _get_startup_new_mode
0x000628cc: ?__c32rtomb_utf8@__crt_mbstring@@YA_KPEAD_UPEAU_Mbstatet@@@Z
0x00062918: ?WalkForward@UWMap4@FH4@@AEAAXPEAPEAE@Z
0x00062950: ??_C@_1DO@FPAPJEMD@?$AAa?$AAp?$AAi?$AA?9?$AAm?$AAs?$AA?9?$AAw?$AAi?$AAn?$AA?9?$AAc?$AAo?$AAr?$AAe@
0x000629c4: ??0big_integer@__crt_strtox@@QEAA@XZ
0x000629f8: ?state_case_type@?$output_processor@DV?$stream_output_adapter@D@__crt_stdio_output@@V?$positional_parameter_base@DV?$stream_output_adapter@D@__crt_stdio_output@@@2@@__crt_stdio_output@@AEAA_NXZ
0x00062ac8: ?FrameUnwindToEmptyState@__FrameHandler3@@SAXPEA_KPEAU_xDISPATCHER_CONTEXT@@PEBU_s_FuncInfo@@@Z
0x00062b38: ?FrameUnwindToState@__FrameHandler3@@SAXPEA_KPEAU_xDISPATCHER_CONTEXT@@PEBU_s_FuncInfo@@H@Z
0x00062ba4: __stdio_common_vswprintf_s
0x00062bd0: __dyn_tls_dtor_callback
0x00062bf8: ?state_case_precision@?$output_processor@_WV?$stream_output_adapter@_W@__crt_stdio_output@@V?$standard_base@_WV?$stream_output_adapter@_W@__crt_stdio_output@@@2@@__crt_stdio_output@@AEAA_NXZ
0x00062cc8: ?type_case_a@?$output_processor@DV?$string_output_adapter@D@__crt_stdio_output@@V?$format_validation_base@DV?$string_output_adapter@D@__crt_stdio_output@@@2@@__crt_stdio_output@@AEAA_NXZ
0x00062d94: ?dangerous_get_state_array@?$dual_state_global@PEAU__crt_multibyte_data@@@__crt_state_management@@QEAAPEAPEAU__crt_multibyte_data@@XZ
0x00062e28: ??_C@_15IFJLDHAF@?$AAi?$AAt@
0x00062e54: ??_C@_02PPKAJPJL@?$CG?$CG@
0x00062e80: GetStdHandle
0x00062e9c: ?size@?$__crt_win32_buffer@DU__crt_win32_buffer_internal_dynamic_resizing@@@@QEAAX_K@Z
0x00062f04: ?capacity@?$__crt_win32_buffer@DU__crt_win32_buffer_internal_dynamic_resizing@@@@QEBA_KXZ
0x00062f6c: ??_C@_1M@CLPEOBGI@?$AAd?$AAa?$AA?9?$AAD?$AAK@
0x00062fa8: ?release@?$__crt_unique_heap_ptr@JU__crt_internal_free_policy@@@@QEAAXXZ
0x00063000: ??$?RU__vcrt_ptd@@@__crt_internal_free_policy@@QEBAXQEBU__vcrt_ptd@@@Z
0x00063058: ??_C@_06FHBGPFGH@?5new?$FL?$FN@
0x00063088: ??$__crt_interlocked_read_pointer@UHINSTANCE__@@@@YAPEAUHINSTANCE__@@PEDSEAU0@@Z
0x000630e8: ??_C@_1M@PAFNENNF@?$AAf?$AAr?$AA?9?$AAl?$AAu@
0x00063124: ?type_case_c_tchar@?$output_processor@DV?$stream_output_adapter@D@__crt_stdio_output@@V?$standard_base@DV?$stream_output_adapter@D@__crt_stdio_output@@@2@@__crt_stdio_output@@AEAA_ND@Z
0x000631ec: __acrt_isleadbyte_l_noupdate
0x00063218: ??$type_case_integer_parse_into_buffer@I@?$output_processor@DV?$stream_output_adapter@D@__crt_stdio_output@@V?$format_validation_base@DV?$stream_output_adapter@D@__crt_stdio_output@@@2@@__crt_stdio_output@@AEAAXII_N@Z
0x00063300: ??_C@_0CB@KJDOOODE@?$GAlocal?5static?5destructor?5helper@
0x00063348: ?type_case_u@?$output_processor@DV?$string_output_adapter@D@__crt_stdio_output@@V?$positional_parameter_base@DV?$string_output_adapter@D@__crt_stdio_output@@@2@@__crt_stdio_output@@AEAA_NXZ
0x00063414: __rtc_iaa
0x0006342c: ??_C@_03NAGEINEP@Tue@
0x00063450: __acrt_initialize_user_matherr
0x00063480: ??_C@_0BC@CELBKLLA@IsValidLocaleName@
0x000634b4: ?state_case_type@?$output_processor@DV?$string_output_adapter@D@__crt_stdio_output@@V?$format_validation_base@DV?$string_output_adapter@D@__crt_stdio_output@@@2@@__crt_stdio_output@@AEAA_NXZ
0x00063584: ??_C@_0BL@CNOONJFP@?$GAplacement?5delete?5closure?8@
0x000635c8: __report_securityfailureEx
0x000635f4: ??_C@_1M@MDGOPGDD@?$AAe?$AAs?$AA?9?$AAp?$AAa@
0x00063630: ?state_count@?$standard_base@_WV?$string_output_adapter@_W@__crt_stdio_output@@@__crt_stdio_output@@KAIXZ
0x000636a8: ??_C@_17MBGCMIPB@?$AAS?$AAu?$AAn@
0x000636d8: __acrt_locale_add_lc_time_reference
0x0006370c: ??4big_integer@__crt_strtox@@QEAAAEAU01@AEBU01@@Z
0x0006374c: ??_C@_17BMKGEGOJ@?$AAT?$AAu?$AAe@
0x0006377c: __except_validate_jump_buffer
0x000637a8: ??_C@_0M@GDNOONDI@FlsGetValue@
0x000637d8: ?state_case_percent@?$output_processor@DV?$stream_output_adapter@D@__crt_stdio_output@@V?$standard_base@DV?$stream_output_adapter@D@__crt_stdio_output@@@2@@__crt_stdio_output@@AEAA_NXZ
0x000638a0: ??_C@_1BM@NNCFBAEE@?$AAi?$AAt?$AAa?$AAl?$AAi?$AAa?$AAn?$AA?9?$AAs?$AAw?$AAi?$AAs?$AAs@
0x00063908: _strnicoll
0x00063924: ??_C@_15CLNEJCE@?$AAs?$AAr@
0x00063950: ??$?0AEBV?$string_output_adapter@D@__crt_stdio_output@@AEB_KAEBQEBDAEBQEAU__crt_locale_pointers@@AEBQEAD@?$standard_base@DV?$string_output_adapter@D@__crt_stdio_output@@@__crt_stdio_output@@IEAA@AEBV?$string_output_adapter@D@1@AEB_KAEBQEBDAEBQEAU__crt_locale_pointers@@AEBQEAD@Z
0x00063a78: ??_C@_04KEPJIHGP@fmod@
0x00063aa0: ??_C@_03ODNJBKGA@Mar@
0x00063ac4: ?FrameUnwindToEmptyState@__FrameHandler4@@SAXPEA_KPEAU_xDISPATCHER_CONTEXT@@PEAUFuncInfo4@FH4@@@Z
0x00063b34: ??_C@_1O@ICJHKIIK@?$AAz?$AAh?$AA?9?$AAC?$AAH?$AAT@
0x00063b78: __dcrt_get_or_create_wide_environment_nolock
0x00063bb4: _ismbbpunct_l
0x00063bd0: __imp_FindNextFileW
0x00063bf4: ??_C@_1M@PNMLOJDF@?$AAe?$AAt?$AA?9?$AAe?$AAe@
0x00063c30: ??_C@_13IMODFHAA@?$AA?9@
0x00063c58: ??$extract_argument_from_va_list@PEAUansi_string@?1??type_case_Z@?$output_processor@DV?$stream_output_adapter@D@__crt_stdio_output@@V?$positional_parameter_base@DV?$stream_output_adapter@D@__crt_stdio_output@@@2@@__crt_stdio_output@@AEAA_NXZ@PEAU1?1??234@AEAA_NXZ@@?$positional_parameter_base@DV?$stream_output_adapter@D@__crt_stdio_output@@@__crt_stdio_output@@IEAA_NAEAPEAUansi_string@?1??type_case_Z@?$output_processor@DV?$stream_output_adapter@D@__crt_stdio_output@@V?$positional_parameter_base@DV?$stream_output_adapter@D@__crt_stdio_output@@@2@@1@AEAA_NXZ@@Z
0x00063e9c: ??$get_parameter_type@D@?$positional_parameter_base@DV?$stream_output_adapter@D@__crt_stdio_output@@@__crt_stdio_output@@CA?AW4parameter_type@01@PEAD@Z
0x00063f44: ??4DName@@QEAAAEAV0@D@Z
0x00063f6c: ??_C@_1M@JAIJPENP@?$AAc?$AAy?$AA?9?$AAG?$AAB@
0x00063fa8: ?parseDecoratedName@UnDecorator@@CA?AVDName@@XZ
0x00063fe8: ?state_case_normal@?$output_processor@DV?$string_output_adapter@D@__crt_stdio_output@@V?$standard_base@DV?$string_output_adapter@D@__crt_stdio_output@@@2@@__crt_stdio_output@@AEAA_NXZ
0x000640b0: ??_C@_05CJIMAING@long?5@
0x000640d8: MultiByteToWideChar
0x000640fc: __acrt_CompareStringW
0x00064120: ??_C@_0BL@LLKPOHJI@?$GAcopy?5constructor?5closure?8@
0x00064164: ?doFunctionReturns@UnDecorator@@SAHXZ
0x00064198: ??_C@_1O@KEMEEGPO@?$AAs?$AAm?$AAa?$AA?9?$AAN?$AAO@
0x000641dc: ??_C@_1CC@HEIGCDGG@?$AAa?$AAm?$AAe?$AAr?$AAi?$AAc?$AAa?$AAn?$AA?5?$AAe?$AAn?$AAg?$AAl?$AAi?$AAs@
0x0006424c: ??_C@_09BHHEALKD@September@
0x00064278: ??1_expandlocale_locale_name_cache@@QEAA@XZ
0x000642b4: ??$tcslen@AEBQEBD@?$__crt_char_traits@D@@SA_KAEBQEBD@Z
0x000642fc: ?type_case_d@?$output_processor@_WV?$stream_output_adapter@_W@__crt_stdio_output@@V?$positional_parameter_base@_WV?$stream_output_adapter@_W@__crt_stdio_output@@@2@@__crt_stdio_output@@AEAA_NXZ
0x000643cc: ??$extract_argument_from_va_list@F_J@?$positional_parameter_base@DV?$string_output_adapter@D@__crt_stdio_output@@@__crt_stdio_output@@IEAA_NAEA_J@Z
0x00064470: ??_C@_1M@GNAECACD@?$AAt?$AAh?$AA?9?$AAt?$AAh@
0x000644ac: ?has_flag@?$output_processor@DV?$string_output_adapter@D@__crt_stdio_output@@V?$positional_parameter_base@DV?$string_output_adapter@D@__crt_stdio_output@@@2@@__crt_stdio_output@@AEBA_NI@Z
0x00064578: ?getExtendedDataIndirectType@UnDecorator@@CA?AVDName@@AEAW4IndirectionKind@@AEA_NH@Z
0x000645dc: __imp_IsValidLocale
0x00064600: ??_C@_09EFNPDFFP@?5volatile@
0x0006462c: ??_C@_1M@LPINJOMC@?$AAz?$AAh?$AA?9?$AAc?$AAn@
0x00064668: ?state_case_normal_common@?$output_processor@_WV?$string_output_adapter@_W@__crt_stdio_output@@V?$format_validation_base@_WV?$string_output_adapter@_W@__crt_stdio_output@@@2@@__crt_stdio_output@@AEAA_NXZ
0x00064744: ?getScopedName@UnDecorator@@CA?AVDName@@XZ
0x00064780: __piob
0x00064798: _invoke_watson
0x000647b8: ??_C@_1M@MCMADGCB@?$AAd?$AAe?$AA?9?$AAD?$AAE@
0x000647f4: ??$get_or_create_environment_nolock@$$V@?$__crt_char_traits@_W@@SAPEAPEA_WXZ
0x00064850: ??_R0?AVtype_info@@@8
0x00064874: ??_C@_0M@DHNBOJMP@extern?5?$CCC?$CC?5@
0x000648ac: _ltoa_s
0x000648c4: ??_C@_1BG@PPOMIBNJ@?$AAL?$AAC?$AA_?$AAC?$AAO?$AAL?$AAL?$AAA?$AAT?$AAE@
0x0006491c: ?type_case_d@?$output_processor@_WV?$stream_output_adapter@_W@__crt_stdio_output@@V?$format_validation_base@_WV?$stream_output_adapter@_W@__crt_stdio_output@@@2@@__crt_stdio_output@@AEAA_NXZ
0x000649ec: wcstoimax
0x00064a04: ??_C@_1M@NIDEAGPH@?$AAs?$AAa?$AA?9?$AAI?$AAN@
0x00064a40: ??1?$output_adapter_data@_WV?$string_output_adapter@_W@__crt_stdio_output@@@__crt_stdio_output@@QEAA@XZ
0x00064ab8: ?type_case_n@?$output_processor@DV?$stream_output_adapter@D@__crt_stdio_output@@V?$standard_base@DV?$stream_output_adapter@D@__crt_stdio_output@@@2@@__crt_stdio_output@@AEAA_NXZ
0x00064b78: _ismbbblank
0x00064b94: ??_C@_06GCICPBLB@__w64?5@
0x00064bbc: ?state_case_normal_common@?$output_processor@_WV?$stream_output_adapter@_W@__crt_stdio_output@@V?$positional_parameter_base@_WV?$stream_output_adapter@_W@__crt_stdio_output@@@2@@__crt_stdio_output@@AEAA_NXZ
0x00064c9c: ??_R1A@?0A@EA@pcharNode@@8
0x00064cc8: ??_C@_15NFGIAIAJ@?$AAv?$AAi@
0x00064cf4: ?type_case_c_tchar@?$output_processor@_WV?$stream_output_adapter@_W@__crt_stdio_output@@V?$standard_base@_WV?$stream_output_adapter@_W@__crt_stdio_output@@@2@@__crt_stdio_output@@AEAA_N_W@Z
0x00064dc0: ?state_case_type@?$output_processor@_WV?$stream_output_adapter@_W@__crt_stdio_output@@V?$standard_base@_WV?$stream_output_adapter@_W@__crt_stdio_output@@@2@@__crt_stdio_output@@AEAA_NXZ
0x00064e88: ??0?$output_processor@_WV?$string_output_adapter@_W@__crt_stdio_output@@V?$format_validation_base@_WV?$string_output_adapter@_W@__crt_stdio_output@@@2@@__crt_stdio_output@@QEAA@AEBV?$string_output_adapter@_W@1@_KQEB_WQEAU__crt_locale_pointers@@QEAD@Z
0x00064f94: ?getNumberOfDimensions@UnDecorator@@CAHXZ
0x00064fcc: ??$extract_argument_from_va_list@G_J@?$standard_base@DV?$string_output_adapter@D@__crt_stdio_output@@@__crt_stdio_output@@IEAA_NAEA_J@Z
0x00065064: ?ExecutionInCatch@__FrameHandler3@@SA_NPEAU_xDISPATCHER_CONTEXT@@PEBU_s_FuncInfo@@@Z
0x000650c8: __vcrt_freefls
0x000650e8: __acrt_MultiByteToWideChar
0x00065114: ?getPtrRefDataType@UnDecorator@@CA?AVDName@@AEBV2@H@Z
0x00065158: ??_C@_1M@BCFAJEAD@?$AAs?$AAl?$AA?9?$AAS?$AAI@
0x00065194: __argv
0x000651ac: _ismbbprint_l
0x000651c8: ??_C@_1CE@FEDDNPDG@?$AAg?$AAe?$AAr?$AAm?$AAa?$AAn?$AA?9?$AAl?$AAu?$AAx?$AAe?$AAm?$AAb?$AAo?$AAu@
0x00065238: __castguard_slow_path_check_fastfail
0x0006526c: ??_C@_07EDHNAJHC@signed?5@
0x00065298: ?type_case_a@?$output_processor@_WV?$string_output_adapter@_W@__crt_stdio_output@@V?$format_validation_base@_WV?$string_output_adapter@_W@__crt_stdio_output@@@2@@__crt_stdio_output@@AEAA_NXZ
0x00065368: ?set_flag@?$output_processor@_WV?$string_output_adapter@_W@__crt_stdio_output@@V?$format_validation_base@_WV?$string_output_adapter@_W@__crt_stdio_output@@@2@@__crt_stdio_output@@AEAAXI@Z
0x00065434: ??1bad_exception@std@@UEAA@XZ
0x00065460: _lseek
0x00065478: ?what@exception@std@@UEBAPEBDXZ
0x000654a8: ?has_any_buffer@__crt_stdio_stream@@QEBA_NXZ
0x000654e4: ??1?$output_processor@DV?$stream_output_adapter@D@__crt_stdio_output@@V?$format_validation_base@DV?$stream_output_adapter@D@__crt_stdio_output@@@2@@__crt_stdio_output@@QEAA@XZ
0x000655a4: ??_C@_02EGOFBIJA@?$DN?$DN@
0x000655d0: ?type_case_x@?$output_processor@DV?$stream_output_adapter@D@__crt_stdio_output@@V?$format_validation_base@DV?$stream_output_adapter@D@__crt_stdio_output@@@2@@__crt_stdio_output@@AEAA_NXZ
0x0006569c: ??_C@_1BG@JGCANDME@?$AAe?$AAn?$AAg?$AAl?$AAi?$AAs?$AAh?$AA?9?$AAu?$AAk@
0x000656f4: ?get_parameter_type@?$positional_parameter_base@DV?$stream_output_adapter@D@__crt_stdio_output@@@__crt_stdio_output@@CA?AW4parameter_type@12@H@Z
0x00065794: ??_C@_15DFGDLJBG@?$AAs?$AAw@
0x000657c0: ?narrow_null_string@?$output_processor@DV?$string_output_adapter@D@__crt_stdio_output@@V?$format_validation_base@DV?$string_output_adapter@D@__crt_stdio_output@@@2@@__crt_stdio_output@@CAPEADXZ
0x00065890: _wtoi64
0x000658a8: ??_C@_1M@NEIEMEGP@?$AAp?$AAl?$AA?9?$AAP?$AAL@
0x000658e4: ?find_next_state@?$output_processor@_WV?$stream_output_adapter@_W@__crt_stdio_output@@V?$positional_parameter_base@_WV?$stream_output_adapter@_W@__crt_stdio_output@@@2@@__crt_stdio_output@@AEBA?AW4state@2@_WW432@@Z
0x000659cc: ??_C@_1M@BBGHNHJP@?$AAz?$AAu?$AA?9?$AAz?$AAa@
0x00065a08: ?add_carry@__crt_strtox@@YAIAEAIII@Z
0x00065a3c: __imp_GetFileType
0x00065a5c: ??_C@_15DLGBCKMP@?$AAm?$AAr@
0x00065a88: __guard_longjmp_count
0x00065aac: ??$extract_argument_from_va_list@PEAXPEAX@?$standard_base@_WV?$stream_output_adapter@_W@__crt_stdio_output@@@__crt_stdio_output@@IEAA_NAEAPEAX@Z
0x00065b4c: ??8iterator@HandlerMap@__FrameHandler3@@QEBA_NAEBV012@@Z
0x00065b94: ___mb_cur_max_l_func
0x00065bb8: ??_C@_08EHJDFFNH@__based?$CI@
0x00065be4: ?write_string@?$stream_output_adapter@D@__crt_stdio_output@@QEBAXQEBDHQEAHAEAV__crt_deferred_errno_cache@@@Z
0x00065c60: ??$tcslen@AEAPEA_W@?$__crt_char_traits@_W@@SA_KAEAPEA_W@Z
0x00065ca8: ??_C@_1BE@JBMPEGDG@?$AAh?$AAo?$AAn?$AAg?$AA?9?$AAk?$AAo?$AAn?$AAg@
0x00065cfc: ?set_flag@?$output_processor@_WV?$stream_output_adapter@_W@__crt_stdio_output@@V?$positional_parameter_base@_WV?$stream_output_adapter@_W@__crt_stdio_output@@@2@@__crt_stdio_output@@AEAAXI@Z
0x00065dcc: ??_Ebad_exception@std@@UEAAPEAXI@Z
0x00065e00: ??0DName@@QEAA@AEBUStringLiteral@@@Z
0x00065e34: _initialize_denormal_control
0x00065e60: ?type_case_d@?$output_processor@DV?$stream_output_adapter@D@__crt_stdio_output@@V?$positional_parameter_base@DV?$stream_output_adapter@D@__crt_stdio_output@@@2@@__crt_stdio_output@@AEAA_NXZ
0x00065f2c: ?release@?$__crt_unique_heap_ptr@Ulconv@@U__crt_internal_free_policy@@@@QEAAXXZ
0x00065f8c: ??_C@_03IDFGHECI@Jun@
0x00065fb0: ??1?$__crt_unique_heap_ptr@Ulconv@@U__crt_internal_free_policy@@@@QEAA@XZ
0x00066008: ??_C@_1M@MADIPODN@?$AAi?$AAt?$AA?9?$AAI?$AAT@
0x00066044: ??_C@_1O@GBAPEKMJ@?$AAq?$AAu?$AAz?$AA?9?$AAp?$AAe@
0x00066088: ?get_parameter_type@?$positional_parameter_base@DV?$string_output_adapter@D@__crt_stdio_output@@@__crt_stdio_output@@CA?AW4parameter_type@12@I@Z
0x00066128: ??$peek_va_arg@U_CRT_DOUBLE@@@__crt_stdio_output@@YA?AU_CRT_DOUBLE@@PEAD@Z
0x00066184: __scrt_fastfail
0x000661a4: ??H@YA?AVDName@@DAEBV0@@Z
0x000661cc: _iob
0x000661e0: ??4iterator@UWMap4@FH4@@QEAAAEAV012@AEBV012@@Z
0x00066220: ??_C@_15DKNDCGEA@?$AAt?$AAt@
0x0006624c: ?state_case_size@?$output_processor@_WV?$stream_output_adapter@_W@__crt_stdio_output@@V?$standard_base@_WV?$stream_output_adapter@_W@__crt_stdio_output@@@2@@__crt_stdio_output@@AEAA_NXZ
0x00066314: ?state_case_normal@?$output_processor@DV?$stream_output_adapter@D@__crt_stdio_output@@V?$standard_base@DV?$stream_output_adapter@D@__crt_stdio_output@@@2@@__crt_stdio_output@@AEAA_NXZ
0x000663dc: ?update_field_width@?$positional_parameter_base@DV?$string_output_adapter@D@__crt_stdio_output@@@__crt_stdio_output@@IEAA_NXZ
0x00066468: ?doThisTypes@UnDecorator@@SAHXZ
0x00066498: ?has_flag@?$output_processor@_WV?$string_output_adapter@_W@__crt_stdio_output@@V?$format_validation_base@_WV?$string_output_adapter@_W@__crt_stdio_output@@@2@@__crt_stdio_output@@AEBA_NI@Z
0x00066564: ?value@?$dual_state_global@PEAU__crt_locale_data@@@__crt_state_management@@QEAAAEAPEAU__crt_locale_data@@XZ
0x000665e0: ??$TypeMatchHelper@V__FrameHandler3@@@@YAHPEBU_s_HandlerType@@PEBU_s_CatchableType@@PEBU_s_ThrowInfo@@@Z
0x00066658: ??_C@_09GAIEOBLP@volatile?5@
0x00066684: signal
0x0006669c: ?getThrowTypes@UnDecorator@@CA?AVDName@@XZ
0x000666d8: ?state_case_percent@?$output_processor@_WV?$stream_output_adapter@_W@__crt_stdio_output@@V?$format_validation_base@_WV?$stream_output_adapter@_W@__crt_stdio_output@@@2@@__crt_stdio_output@@AEAA_NXZ
0x000667ac: ??_C@_1M@NMPCJPHE@?$AAi?$AAt?$AA?9?$AAc?$AAh@
0x000667e8: ??1?$output_processor@_WV?$string_output_adapter@_W@__crt_stdio_output@@V?$positional_parameter_base@_WV?$string_output_adapter@_W@__crt_stdio_output@@@2@@__crt_stdio_output@@QEAA@XZ
0x000668b0: ??HDName@@QEBA?AV0@AEBV0@@Z
0x000668dc: ??_C@_17PNNKMEED@?$AAM?$AAa?$AAy@
0x0006690c: ?setIsVCallThunk@DName@@QEAAXXZ
0x0006693c: ?parse_int_from_format_string@?$output_processor@_WV?$stream_output_adapter@_W@__crt_stdio_output@@V?$standard_base@_WV?$stream_output_adapter@_W@__crt_stdio_output@@@2@@__crt_stdio_output@@AEAA_NQEAH@Z
0x00066a18: ??_C@_15PCFJPHHO@?$AAe?$AAt@
0x00066a44: ?validate_and_update_state_at_beginning_of_format_character@?$standard_base@DV?$string_output_adapter@D@__crt_stdio_output@@@__crt_stdio_output@@IEAA_NXZ
0x00066aec: ??_C@_1BG@OBCNFJB@?$AAs?$AAr?$AA?9?$AAB?$AAA?$AA?9?$AAL?$AAa?$AAt?$AAn@
0x00066b44: __acrt_fp_format
0x00066b64: ??0__crt_deferred_errno_cache@@QEAA@XZ
0x00066b9c: ??_C@_02KCKGHPCA@?$CJ?5@
0x00066bc4: __std_type_info_name
0x00066be8: ??_C@_17DNCLJFIF@?$AAA?$AAC?$AAP@
0x00066c18: _ismbbalnum
0x00066c34: ??_C@_1BA@PFFKHIOG@?$AAa?$AAp?$AAi?$AA?9?$AAm?$AAs?$AA?9@
0x00066c7c: ??_C@_1M@LOICPMOJ@?$AAb?$AAn?$AA?9?$AAI?$AAN@
0x00066cb8: ??_C@_17CKNLEDEC@?$AAM?$AAa?$AAr@
0x00066ce8: ??$parse_integer_from_string@J_WPEAPEA_W@__crt_strtox@@YAJQEB_WQEAPEA_WHQEAU__crt_locale_pointers@@@Z
0x00066d5c: _mbsdec
0x00066d74: _CTA2?AVbad_exception@std@@
0x00066da0: ?GetMaxState@__FrameHandler4@@SAHPEAU_xDISPATCHER_CONTEXT@@PEAUFuncInfo4@FH4@@@Z
0x00066e00: ??$read_va_arg@_W@__crt_stdio_output@@YA_WAEAPEAD@Z
0x00066e44: ??_C@_03JPJOFNIA@Nov@
0x00066e68: ??$is_character_specifier@D@?$positional_parameter_base@DV?$stream_output_adapter@D@__crt_stdio_output@@@__crt_stdio_output@@CA_ND@Z
0x00066efc: __acrt_uninitialize_ptd
0x00066f24: _get_wpgmptr
0x00066f40: ?isNoExcept@__FrameHandler4@@SA_NPEAUFuncInfo4@FH4@@@Z
0x00066f88: ??$uninitialize@A6AXAEAPEAPEA_W@Z@?$dual_state_global@PEAPEA_W@__crt_state_management@@QEAAXA6AXAEAPEAPEA_W@Z@Z
0x00067008: __acrt_rg_country_count
0x00067030: __enclave_config
0x00067050: terminate
0x00067068: _log_special
0x00067084: _setmbcp_nolock
0x000670a4: ?type_case_integer@?$output_processor@_WV?$string_output_adapter@_W@__crt_stdio_output@@V?$format_validation_base@_WV?$string_output_adapter@_W@__crt_stdio_output@@@2@@__crt_stdio_output@@AEAA_NI_N@Z
0x0006717c: ??_C@_03BMAOKBAD@Oct@
0x000671a0: ?get_parameter_type@?$positional_parameter_base@DV?$string_output_adapter@D@__crt_stdio_output@@@__crt_stdio_output@@CA?AW4parameter_type@12@F@Z
0x00067240: ??_C@_1M@NDBGMMJL@?$AAe?$AAs?$AA?9?$AAH?$AAN@
0x0006727c: _errno
0x00067294: __acrt_report_runtime_error
0x000672c0: ??_C@_09LAPHOOG@private?3?5@
0x000672ec: ??_C@_03FEFJNEK@Sat@
0x00067310: ?getESTypes@__FrameHandler3@@SAPEBU_s_ESTypeList@@PEBU_s_FuncInfo@@@Z
0x00067364: ??_C@_1M@BJBMFGOB@?$AAb?$AAn?$AA?9?$AAi?$AAn@
0x000673a0: ??_R1A@?0A@EA@exception@std@@8
0x000673d0: mainCRTStartup
0x000673f0: ??$output_debug_string@AEBQEBD@?$__crt_char_traits@D@@SAXAEBQEBD@Z
0x00067444: ?type_case_p@?$output_processor@DV?$stream_output_adapter@D@__crt_stdio_output@@V?$format_validation_base@DV?$stream_output_adapter@D@__crt_stdio_output@@@2@@__crt_stdio_output@@AEAA_NXZ
0x00067510: __castguard_check_failure_debugbreak
0x00067544: ?type_case_p@?$output_processor@_WV?$stream_output_adapter@_W@__crt_stdio_output@@V?$format_validation_base@_WV?$stream_output_adapter@_W@__crt_stdio_output@@@2@@__crt_stdio_output@@AEAA_NXZ
0x00067614: ?type_case_Z@?$output_processor@_WV?$stream_output_adapter@_W@__crt_stdio_output@@V?$positional_parameter_base@_WV?$stream_output_adapter@_W@__crt_stdio_output@@@2@@__crt_stdio_output@@AEAA_NXZ
0x000676e4: ??$?RU__crt_multibyte_data@@@__crt_internal_free_policy@@QEBAXQEBU__crt_multibyte_data@@@Z
0x00067750: ?type_case_s_compute_narrow_string_length@?$output_processor@_WV?$string_output_adapter@_W@__crt_stdio_output@@V?$standard_base@_WV?$string_output_adapter@_W@__crt_stdio_output@@@2@@__crt_stdio_output@@AEBAHH_W@Z
0x00067834: wcsncpy_s
0x0006784c: fegetround
0x00067868: ??_C@_0BE@LJANKFHF@EnumSystemLocalesEx@
0x000678a0: ??0DName@@QEAA@_J@Z
0x000678c4: ?write_character@?$string_output_adapter@D@__crt_stdio_output@@QEBA_NDQEAH@Z
0x00067920: ??1__acrt_stdio_temporary_buffering_guard@@QEAA@XZ
0x00067964: __acrt_GetModuleFileNameA
0x0006798c: _ismbbprint
0x000679a8: ?detach@?$__crt_unique_heap_ptr@U__crt_locale_pointers@@U__crt_internal_free_policy@@@@QEAAPEAU__crt_locale_pointers@@XZ
0x00067a30: ?type_case_c_tchar@?$output_processor@_WV?$string_output_adapter@_W@__crt_stdio_output@@V?$positional_parameter_base@_WV?$string_output_adapter@_W@__crt_stdio_output@@@2@@__crt_stdio_output@@AEAA_N_W@Z
0x00067b08: __NULL_IMPORT_DESCRIPTOR
0x00067b30: _exit
0x00067b44: ??_C@_1BC@PJMIIAAN@?$AAc?$AAa?$AAn?$AAa?$AAd?$AAi?$AAa?$AAn@
0x00067b90: ?state_case_type@?$output_processor@DV?$stream_output_adapter@D@__crt_stdio_output@@V?$standard_base@DV?$stream_output_adapter@D@__crt_stdio_output@@@2@@__crt_stdio_output@@AEAA_NXZ
0x00067c54: ?process@?$output_processor@DV?$stream_output_adapter@D@__crt_stdio_output@@V?$standard_base@DV?$stream_output_adapter@D@__crt_stdio_output@@@2@@__crt_stdio_output@@QEAAHXZ
0x00067d10: ?FrameUnwindToState@__FrameHandler4@@SAXPEA_KPEAU_xDISPATCHER_CONTEXT@@PEAUFuncInfo4@FH4@@H@Z
0x00067d7c: ??0?$output_adapter_data@DV?$string_output_adapter@D@__crt_stdio_output@@@__crt_stdio_output@@IEAA@AEBV?$string_output_adapter@D@1@_KQEBDQEAU__crt_locale_pointers@@QEAD@Z
0x00067e38: __p__fmode
0x00067e54: ??_C@_1CA@JHAPGEGI@?$AAs?$AAp?$AAa?$AAn?$AAi?$AAs?$AAh?$AA?9?$AAe?$AAc?$AAu?$AAa?$AAd?$AAo?$AAr@
0x00067ec4: ??$make_c_string_character_source@DPEAPEAD@__crt_strtox@@YA?AV?$c_string_character_source@D@0@QEBDQEAPEAD@Z
0x00067f40: ??$?0AEAViterator@TryBlockMap@__FrameHandler3@@AEAV012@$0A@@?$pair@Viterator@TryBlockMap@__FrameHandler3@@V123@@std@@QEAA@AEAViterator@TryBlockMap@__FrameHandler3@@0@Z
0x00067ff8: __acrt_RoInitialize
0x0006801c: ??_C@_0DB@ILEFOCIJ@?$GAtemplate?5static?5data?5member?5co@
0x00068068: ??_C@_13PJJBFPED@?$AA?$DL@
0x00068094: ?type_case_s_compute_narrow_string_length@?$output_processor@_WV?$string_output_adapter@_W@__crt_stdio_output@@V?$format_validation_base@_WV?$string_output_adapter@_W@__crt_stdio_output@@@2@@__crt_stdio_output@@AEBAHH_W@Z
0x00068180: ?GetHandlerSearchState@__FrameHandler4@@SAHPEA_KPEAU_xDISPATCHER_CONTEXT@@PEAUFuncInfo4@FH4@@@Z
0x000681f0: ??$parse_integer_from_string@J_W$$T@__crt_strtox@@YAJQEB_W$$THQEAU__crt_locale_pointers@@@Z
0x0006825c: ??$tcslen@AEBQEAD@?$__crt_char_traits@D@@SA_KAEBQEAD@Z
0x000682a4: ?type_case_c@?$output_processor@_WV?$string_output_adapter@_W@__crt_stdio_output@@V?$positional_parameter_base@_WV?$string_output_adapter@_W@__crt_stdio_output@@@2@@__crt_stdio_output@@AEAA_NXZ
0x00068374: ??$read_va_arg@PEAUansi_string@?1??type_case_Z@?$output_processor@_WV?$string_output_adapter@_W@__crt_stdio_output@@V?$positional_parameter_base@_WV?$string_output_adapter@_W@__crt_stdio_output@@@2@@__crt_stdio_output@@AEAA_NXZ@@__crt_stdio_output@@YAPEAUansi_string@?1??type_case_Z@?$output_processor@_WV?$string_output_adapter@_W@__crt_stdio_output@@V?$positional_parameter_base@_WV?$string_output_adapter@_W@__crt_stdio_output@@@2@@0@AEAA_NXZ@AEAPEAD@Z
0x0006854c: ?isUDC@DName@@QEBAHXZ
0x00068570: ?m_recursionLevel@UnDecorator@@0KA
0x000685a4: ?close@?$__crt_unique_handle_t@U__crt_findfile_traits@@@@QEAAXXZ
0x000685f4: ??$__crt_fast_decode_pointer@P6AH_K@Z@@YAP6AH_K@ZQ6AH0@Z@Z
0x00068640: GetOEMCP
0x00068658: __threadid
0x00068674: ??1?$format_validation_base@DV?$string_output_adapter@D@__crt_stdio_output@@@__crt_stdio_output@@QEAA@XZ
0x000686ec: _configure_narrow_argv
0x00068714: ?getPointerToMember@UnDecorator@@CA?AVDName@@XZ
0x00068754: ??0?$__crt_scoped_stack_ptr_tag@_W@@QEAA@QEA_W@Z
0x00068794: ??$extract_argument_from_va_list@U_CRT_DOUBLE@@U1@@?$standard_base@DV?$stream_output_adapter@D@__crt_stdio_output@@@__crt_stdio_output@@IEAA_NAEAU_CRT_DOUBLE@@@Z
0x00068844: ?doThrowTypes@UnDecorator@@SAHXZ
0x00068874: ?state_count@?$standard_base@DV?$string_output_adapter@D@__crt_stdio_output@@@__crt_stdio_output@@KAIXZ
0x000688ec: ?parse_int_from_format_string@?$output_processor@_WV?$string_output_adapter@_W@__crt_stdio_output@@V?$standard_base@_WV?$string_output_adapter@_W@__crt_stdio_output@@@2@@__crt_stdio_output@@AEAA_NQEAH@Z
0x000689c8: ??1?$output_processor@_WV?$string_output_adapter@_W@__crt_stdio_output@@V?$format_validation_base@_WV?$string_output_adapter@_W@__crt_stdio_output@@@2@@__crt_stdio_output@@QEAA@XZ
0x00068a8c: __report_rangecheckfailure
0x00068ab8: __p__wpgmptr
0x00068ad4: ?getVfTableType@UnDecorator@@CA?AVDName@@AEBV2@@Z
0x00068b14: ??_C@_0P@GCOCNKDM@std?3?3nullptr_t@
0x00068b48: ?detach@?$__crt_unique_heap_ptr@PEADU__crt_internal_free_policy@@@@QEAAPEAPEADXZ
0x00068ba8: _wtol_l
0x00068bc0: ?validate_and_update_state_at_beginning_of_format_character@?$positional_parameter_base@DV?$stream_output_adapter@D@__crt_stdio_output@@@__crt_stdio_output@@IEAA_NXZ
0x00068c74: ??U@YA?AW4__acrt_fenv_abstract_status@@W40@0@Z
0x00068cb4: ??0?$output_processor@DV?$string_output_adapter@D@__crt_stdio_output@@V?$positional_parameter_base@DV?$string_output_adapter@D@__crt_stdio_output@@@2@@__crt_stdio_output@@QEAA@AEBV?$string_output_adapter@D@1@_KQEBDQEAU__crt_locale_pointers@@QEAD@Z
0x00068dbc: ?BuildCatchObject@__FrameHandler4@@SAXPEAUEHExceptionRecord@@PEAXPEAUHandlerType4@FH4@@PEBU_s_CatchableType@@@Z
0x00068e3c: __acrt_fmode_initializer
0x00068e64: ??_C@_1O@PDICJHAG@?$AAF?$AAr?$AAi?$AAd?$AAa?$AAy@
0x00068ea4: __dcrt_lowio_ensure_console_output_initialized
0x00068ee4: ??_C@_1M@FLIDJFHL@?$AAh?$AAr?$AA?9?$AAB?$AAA@
0x00068f20: ??_C@_0L@KDOEJCKC@_nextafter@
0x00068f4c: ??1?$__crt_unique_heap_ptr@U__vcrt_ptd@@U__crt_internal_free_policy@@@@QEAA@XZ
0x00068fac: ?release@?$__crt_unique_heap_ptr@U__crt_stdio_stream_data@@U__crt_internal_free_policy@@@@QEAAXXZ
0x0006901c: ??1?$__crt_unique_heap_ptr@EU__crt_internal_free_policy@@@@QEAA@XZ
0x00069070: ?getVdispMapType@UnDecorator@@CA?AVDName@@AEBV2@@Z
0x000690b4: ??_C@_08KJLFOPNE@?$FLthunk?$FN?3@
0x000690e4: ??_C@_0BK@IHCCFNEL@?$GAtemplate?9type?9parameter?9@
0x00069128: ??0?$__crt_unique_heap_ptr@U__crt_locale_data@@U__crt_internal_free_policy@@@@QEAA@QEAU__crt_locale_data@@@Z
0x000691a4: ??_C@_1BI@BEHPPHKC@?$AAp?$AAu?$AAe?$AAr?$AAt?$AAo?$AA?9?$AAr?$AAi?$AAc?$AAo@
0x00069200: ??_C@_08JCCMCCIL@HH?3mm?3ss@
0x0006922c: ??_5@YAAEAW4__acrt_fenv_abstract_control@@AEAW40@W40@@Z
0x00069274: __scrt_dllmain_crt_thread_detach
0x000692a4: ??_C@_13FPGAJAPJ@?$AA?2@
0x000692cc: _strtoi64
0x000692e4: ExitProcess
0x00069300: ?validate_and_update_state_at_end_of_format_string@?$positional_parameter_base@DV?$stream_output_adapter@D@__crt_stdio_output@@@__crt_stdio_output@@IEAA_NXZ
0x000693ac: ?validate_and_update_state_at_end_of_format_string@?$standard_base@DV?$string_output_adapter@D@__crt_stdio_output@@@__crt_stdio_output@@IEBA_NXZ
0x0006944c: ??_C@_0CB@PDBIFEP@?$GAdynamic?5atexit?5destructor?5for?5@
0x00069494: __isa_available_init
0x000694b8: ??$extract_argument_from_va_list@GD@?$positional_parameter_base@DV?$stream_output_adapter@D@__crt_stdio_output@@@__crt_stdio_output@@IEAA_NAEAD@Z
0x00069558: ??_C@_0L@EGPHHEKN@?$DMellipsis?$DO@
0x0006958c: ??_C@_1O@NDKPBNNH@?$AAs?$AAm?$AAa?$AA?9?$AAs?$AAe@
0x000695d0: ??_C@_02GOGNNPBN@?$CJ?$FL@
0x000695fc: ??_C@_1M@HPKGCFGN@?$AAe?$AAn?$AA?9?$AAB?$AAZ@
0x00069638: __iswcsymf
0x00069654: ??AReplicator@@QEBA?AVDName@@H@Z
0x00069684: ??_C@_1M@GKGFPKAP@?$AAe?$AAs?$AA?9?$AAe?$AAs@
0x000696c0: __acrt_fenv_expand_round_control
0x000696f0: FlushFileBuffers
0x00069710: _wcsnicmp
0x00069728: ?state_case_flag@?$output_processor@_WV?$string_output_adapter@_W@__crt_stdio_output@@V?$standard_base@_WV?$string_output_adapter@_W@__crt_stdio_output@@@2@@__crt_stdio_output@@AEAA_NXZ
0x000697f0: ??_C@_15LMKNDMHN@?$AAh?$AAy@
0x0006981c: ?find_next_state@?$output_processor@DV?$stream_output_adapter@D@__crt_stdio_output@@V?$format_validation_base@DV?$stream_output_adapter@D@__crt_stdio_output@@@2@@__crt_stdio_output@@AEBA?AW4state@2@DW432@@Z
0x000698fc: ??_C@_1DM@LNCGDDPN@?$AAa?$AAp?$AAi?$AA?9?$AAm?$AAs?$AA?9?$AAw?$AAi?$AAn?$AA?9?$AAc?$AAo?$AAr?$AAe@
0x00069970: ??_C@_1M@PPDBCNFM@?$AAm?$AAt?$AA?9?$AAm?$AAt@
0x000699ac: ??_C@_17GGDALCHA@?$AAc?$AAh?$AAi@
0x000699dc: ?m_CHPENameOffset@UnDecorator@@0KA
0x00069a10: iswxdigit
0x00069a28: ??1?$__crt_win32_buffer@_WU__crt_win32_buffer_internal_dynamic_resizing@@@@QEAA@XZ
0x00069a8c: ?__mbrtowc_utf8@__crt_mbstring@@YA_KPEA_WPEBD_KPEAU_Mbstatet@@@Z
0x00069adc: __imp_RaiseException
0x00069b00: ??$?0AEBV?$string_output_adapter@_W@__crt_stdio_output@@AEB_KAEBQEB_WAEBQEAU__crt_locale_pointers@@AEBQEAD@?$positional_parameter_base@_WV?$string_output_adapter@_W@__crt_stdio_output@@@__crt_stdio_output@@IEAA@AEBV?$string_output_adapter@_W@1@AEB_KAEBQEB_WAEBQEAU__crt_locale_pointers@@AEBQEAD@Z
0x00069c38: _ismbbtrail_l
0x00069c54: ??_C@_17CNJFBPG@?$AAk?$AAo?$AAk@
0x00069c84: ??$extract_argument_from_va_list@PEAUansi_string@?1??type_case_Z@?$output_processor@_WV?$string_output_adapter@_W@__crt_stdio_output@@V?$positional_parameter_base@_WV?$string_output_adapter@_W@__crt_stdio_output@@@2@@__crt_stdio_output@@AEAA_NXZ@PEAU1?1??234@AEAA_NXZ@@?$positional_parameter_base@_WV?$string_output_adapter@_W@__crt_stdio_output@@@__crt_stdio_output@@IEAA_NAEAPEAUansi_string@?1??type_case_Z@?$output_processor@_WV?$string_output_adapter@_W@__crt_stdio_output@@V?$positional_parameter_base@_WV?$string_output_adapter@_W@__crt_stdio_output@@@2@@1@AEAA_NXZ@@Z
0x00069ed4: _configure_wide_argv
0x00069ef8: _get_purecall_handler
0x00069f1c: ??Diterator@TryBlockMap4@FH4@@QEAA?AUTryBlockMapEntry4@2@XZ
0x00069f68: __acrt_can_use_vista_locale_apis
0x00069f98: ??_C@_1M@DPCLHLIE@?$AAk?$AAa?$AA?9?$AAG?$AAE@
0x00069fd4: ?_OptionsStorage@?1??__local_stdio_scanf_options@@9@4_KA
0x0006a01c: ??_C@_15HPJPHDM@?$AAb?$AAe@
0x0006a048: ??0__acrt_stdio_temporary_buffering_guard@@QEAA@QEAU_iobuf@@@Z
0x0006a098: ?getSymbolName@UnDecorator@@CA?AVDName@@XZ
0x0006a0d4: ??_C@_05BNCCCJPP@const@
0x0006a0fc: ?type_case_u@?$output_processor@_WV?$string_output_adapter@_W@__crt_stdio_output@@V?$standard_base@_WV?$string_output_adapter@_W@__crt_stdio_output@@@2@@__crt_stdio_output@@AEAA_NXZ
0x0006a1c0: ??$__crt_interlocked_read@H@@YAHPEDH@Z
0x0006a1f8: __acrt_tran_fma3_initializer
0x0006a224: ??$make_c_string_character_source@D$$T@__crt_strtox@@YA?AV?$c_string_character_source@D@0@QEBD$$T@Z
0x0006a298: ??$extract_argument_from_va_list@U_CRT_DOUBLE@@U1@@?$positional_parameter_base@_WV?$string_output_adapter@_W@__crt_stdio_output@@@__crt_stdio_output@@IEAA_NAEAU_CRT_DOUBLE@@@Z
0x0006a358: __xi_a
0x0006a370: ??_C@_02EEKDKGMJ@?$DO?$DN@
0x0006a39c: _set_app_type
0x0006a3b8: __imp_GetSystemTimeAsFileTime
0x0006a3e4: ??$extract_argument_from_va_list@PEADPEAD@?$standard_base@_WV?$stream_output_adapter@_W@__crt_stdio_output@@@__crt_stdio_output@@IEAA_NAEAPEAD@Z
0x0006a484: ?TypeMatch@__FrameHandler4@@SAHPEAUHandlerType4@FH4@@PEBU_s_CatchableType@@PEBU_s_ThrowInfo@@@Z
0x0006a4f4: ??_C@_07LFCOJCAC@__int64@
0x0006a51c: ?adjust_hexit@?$output_processor@_WV?$stream_output_adapter@_W@__crt_stdio_output@@V?$format_validation_base@_WV?$stream_output_adapter@_W@__crt_stdio_output@@@2@@__crt_stdio_output@@CADH_N@Z
0x0006a5ec: ??_C@_0BN@IBLMMFAP@?$GAnon?9type?9template?9parameter@
0x0006a634: _initialize_onexit_table
0x0006a65c: ??_Eexception@std@@UEAAPEAXI@Z
0x0006a68c: __imp_GetCPInfo
0x0006a6ac: ??_C@_15KBECGEFG@?$AAp?$AAt@
0x0006a6d8: _ismbbkprint
0x0006a6f4: ??_C@_15HIEBHAIO@?$AAn?$AAz@
0x0006a720: __acrt_uninitialize_stdio
0x0006a748: ??$tcspbrk@AEAPEA_WAEAY02$$CB_W@?$__crt_char_traits@_W@@SAPEA_WAEAPEA_WAEAY02$$CB_W@Z
0x0006a7ac: _fputchar
0x0006a7c4: ??0?$output_processor@DV?$stream_output_adapter@D@__crt_stdio_output@@V?$standard_base@DV?$stream_output_adapter@D@__crt_stdio_output@@@2@@__crt_stdio_output@@QEAA@AEBV?$stream_output_adapter@D@1@_KQEBDQEAU__crt_locale_pointers@@QEAD@Z
0x0006a8c0: _fflush_nolock
0x0006a8e0: ?is_space@__crt_strtox@@YA_NDQEAU__crt_locale_pointers@@@Z
0x0006a92c: ??_C@_0BJ@PBCCBIPI@GetUserDefaultLocaleName@
0x0006a968: _environ_table
0x0006a988: quick_exit
0x0006a9a4: ??_C@_03LALBNOCG@cos@
0x0006a9c8: ??$extract_argument_from_va_list@_W_W@?$standard_base@_WV?$stream_output_adapter@_W@__crt_stdio_output@@@__crt_stdio_output@@IEAA_NAEA_W@Z
0x0006aa64: ?initialize@?$dual_state_global@PEAPEAD@__crt_state_management@@QEAAXQEAPEAD@Z
0x0006aac4: ??$?RG@__crt_internal_free_policy@@QEBAXQEBG@Z
0x0006ab04: ??$set_variable_in_environment_nolock@PEA_WH@?$__crt_char_traits@_W@@SAH$$QEAPEA_W$$QEAH@Z
0x0006ab70: ??_C@_0BA@IHGNDAEB@CompareStringEx@
0x0006aba4: ??_C@_1BM@HKBCKIPC@?$AAg?$AAr?$AAe?$AAa?$AAt?$AA?5?$AAb?$AAr?$AAi?$AAt?$AAa?$AAi?$AAn@
0x0006ac0c: ??$?B$$A6AXXZ@__crt_fast_encoded_nullptr_t@@QEBAP6AXXZXZ
0x0006ac54: ??0?$common_data@_W@__crt_stdio_output@@IEAA@XZ
0x0006ac94: ?type_case_Z@?$output_processor@_WV?$stream_output_adapter@_W@__crt_stdio_output@@V?$standard_base@_WV?$stream_output_adapter@_W@__crt_stdio_output@@@2@@__crt_stdio_output@@AEAA_NXZ
0x0006ad58: _ismbbtrail
0x0006ad74: ??$peek_va_arg@I@__crt_stdio_output@@YAIPEAD@Z
0x0006adb4: ?write_string@?$string_output_adapter@_W@__crt_stdio_output@@QEBAXQEB_WHQEAHAEAV__crt_deferred_errno_cache@@@Z
0x0006ae34: _wcstoui64
0x0006ae50: iswcntrl
0x0006ae68: ??_C@_15BPLIHJJM@?$AAt?$AAr@
0x0006ae94: __acrt_get_locale_data_prefix
0x0006aec0: __imp_GetCurrentThread
0x0006aee8: __imp_GetModuleHandleExW
0x0006af10: ??_C@_19EPFLPGAP@?$AAJ?$AAu?$AAn?$AAe@
0x0006af48: memset_repstos
0x0006af68: ??_C@_0BO@PFGOCPJJ@?$GAvector?5constructor?5iterator?8@
0x0006afb0: ??B?$__crt_unique_heap_ptr@PEA_WU__crt_internal_free_policy@@@@QEBA_NXZ
0x0006b008: ??_C@_1M@MHLPGNKM@?$AAh?$AAu?$AA?9?$AAH?$AAU@
0x0006b044: _wcreate_locale
0x0006b064: ?has_temporary_buffer@__crt_stdio_stream@@QEBA_NXZ
0x0006b0a8: fflush
0x0006b0c0: ?multiply@__crt_strtox@@YA_NAEAUbig_integer@1@AEBU21@@Z
0x0006b108: ?state_case_normal@?$output_processor@DV?$stream_output_adapter@D@__crt_stdio_output@@V?$positional_parameter_base@DV?$stream_output_adapter@D@__crt_stdio_output@@@2@@__crt_stdio_output@@AEAA_NXZ
0x0006b1dc: ??_C@_15NBKABECB@?$AAd?$AAe@
0x0006b208: ??_C@_1BG@IBCKDDOE@?$AAa?$AAz?$AA?9?$AAa?$AAz?$AA?9?$AAl?$AAa?$AAt?$AAn@
0x0006b260: ??_R3DNameStatusNode@@8
0x0006b288: ?type_case_c_tchar@?$output_processor@_WV?$stream_output_adapter@_W@__crt_stdio_output@@V?$positional_parameter_base@_WV?$stream_output_adapter@_W@__crt_stdio_output@@@2@@__crt_stdio_output@@AEAA_N_W@Z
0x0006b360: ??_C@_1M@FBDHPPGD@?$AAe?$AAs?$AA?9?$AAm?$AAx@
0x0006b39c: ?get_address_of@?$__crt_unique_handle_t@U__crt_hmodule_traits@@@@QEAAPEAPEAUHINSTANCE__@@XZ
0x0006b408: ?validate_and_store_parameter_data@?$positional_parameter_base@_WV?$string_output_adapter@_W@__crt_stdio_output@@@__crt_stdio_output@@AEAA_NAEAUparameter_data@12@W4parameter_type@12@_WW4length_modifier@2@@Z
0x0006b4e8: _set_errno_from_matherr
0x0006b510: __imp_GetStringTypeW
0x0006b534: ?multiply_core@__crt_strtox@@YAIQEAIII@Z
0x0006b56c: ??_C@_0BA@ONOKGCMP@GetLocaleInfoEx@
0x0006b5a0: ?get_parameter_type@?$positional_parameter_base@_WV?$string_output_adapter@_W@__crt_stdio_output@@@__crt_stdio_output@@CA?AW4parameter_type@12@H@Z
0x0006b644: ??$tcslen@AEBQEB_W@?$__crt_char_traits@_W@@SA_KAEBQEB_W@Z
0x0006b68c: __acrt_enable_global_locale_sync
0x0006b6bc: ??_C@_15IJBHMCFL@?$AAa?$AAz@
0x0006b6e8: ??_C@_19BIFMLPCD@?$AAJ?$AAu?$AAl?$AAy@
0x0006b720: _putwch
0x0006b738: ??_C@_1BG@DGCJGJBE@?$AAa?$AAz?$AA?9?$AAA?$AAZ?$AA?9?$AAC?$AAy?$AAr?$AAl@
0x0006b790: ?getDataType@UnDecorator@@CA?AVDName@@PEAV2@@Z
0x0006b7d0: _vfprintf_l
0x0006b7ec: ??_C@_07OHNGEDJK@nullptr@
0x0006b814: memcmp
0x0006b82c: ??_C@_1M@MNPLFAAH@?$AAe?$AAs?$AA?9?$AAE?$AAS@
0x0006b868: ??1exception@std@@UEAA@XZ
0x0006b890: ??_C@_02DHLNPPGH@?$HM?$DN@
0x0006b8bc: ?getFloatingPoint@UnDecorator@@CA?AVDName@@H@Z
0x0006b8fc: ?getDataIndirectType@UnDecorator@@CA?AVDName@@XZ
0x0006b93c: ??$forward@_K@std@@YA$$QEA_KAEA_K@Z
0x0006b970: ??_C@_1BG@GKAGPCGG@?$AAa?$AAu?$AAs?$AAt?$AAr?$AAa?$AAl?$AAi?$AAa?$AAn@
0x0006b9c8: ?is_valid@?$__crt_unique_heap_ptr@U__crt_multibyte_data@@U__crt_internal_free_policy@@@@QEBA_NXZ
0x0006ba38: ??$get_parameter_type@Uansi_string@?1??type_case_Z@?$output_processor@_WV?$string_output_adapter@_W@__crt_stdio_output@@V?$positional_parameter_base@_WV?$string_output_adapter@_W@__crt_stdio_output@@@2@@__crt_stdio_output@@AEAA_NXZ@@?$positional_parameter_base@_WV?$string_output_adapter@_W@__crt_stdio_output@@@__crt_stdio_output@@CA?AW4parameter_type@01@PEAUansi_string@?1??type_case_Z@?$output_processor@_WV?$string_output_adapter@_W@__crt_stdio_output@@V?$positional_parameter_base@_WV?$string_output_adapter@_W@__crt_stdio_output@@@2@@1@AEAA_NXZ@@Z
0x0006bc70: ?get@?$__crt_unique_handle_t@U__crt_findfile_traits@@@@QEBAPEAXXZ
0x0006bcc0: ??_C@_1M@KPOPDDGO@?$AAn?$AAl?$AA?9?$AAn?$AAl@
0x0006bcfc: ??_C@_03MGHMBJCF@log@
0x0006bd20: ??0?$__crt_unique_handle_t@U__crt_findfile_traits@@@@QEAA@QEAX@Z
0x0006bd70: ??_C@_1M@KBMAIBFN@?$AAv?$AAi?$AA?9?$AAV?$AAN@
0x0006bdac: ??$extract_argument_from_va_list@PEAXPEAX@?$positional_parameter_base@DV?$string_output_adapter@D@__crt_stdio_output@@@__crt_stdio_output@@IEAA_NAEAPEAX@Z
0x0006be58: __acrt_show_narrow_message_box
0x0006be88: __pxcptinfoptrs
0x0006bea8: ??_C@_17PDPHAADD@?$AAT?$AAh?$AAu@
0x0006bed8: wcstoumax
0x0006bef0: ?has_big_buffer@__crt_stdio_stream@@QEBA_NXZ
0x0006bf2c: ??0?$output_processor@DV?$string_output_adapter@D@__crt_stdio_output@@V?$format_validation_base@DV?$string_output_adapter@D@__crt_stdio_output@@@2@@__crt_stdio_output@@QEAA@AEBV?$string_output_adapter@D@1@_KQEBDQEAU__crt_locale_pointers@@QEAD@Z
0x0006c030: ?status@DName@@QEBA?AW4DNameStatus@@XZ
0x0006c068: ??0?$__crt_win32_buffer@DU__crt_win32_buffer_internal_dynamic_resizing@@@@QEAA@XZ
0x0006c0c8: ??_C@_15KNPADPLH@?$AAb?$AAg@
0x0006c0f4: ??_C@_02MDINNEEG@s?5@
0x0006c118: ?has_flag@?$output_processor@_WV?$string_output_adapter@_W@__crt_stdio_output@@V?$positional_parameter_base@_WV?$string_output_adapter@_W@__crt_stdio_output@@@2@@__crt_stdio_output@@AEBA_NI@Z
0x0006c1e8: ?type_case_X@?$output_processor@DV?$string_output_adapter@D@__crt_stdio_output@@V?$format_validation_base@DV?$string_output_adapter@D@__crt_stdio_output@@@2@@__crt_stdio_output@@AEAA_NXZ
0x0006c2b4: ??_C@_1BK@FBDGGIFF@?$AAs?$AAo?$AAu?$AAt?$AAh?$AA?9?$AAa?$AAf?$AAr?$AAi?$AAc?$AAa@
0x0006c314: ??$type_case_integer_parse_into_buffer@_K@?$output_processor@_WV?$string_output_adapter@_W@__crt_stdio_output@@V?$format_validation_base@_WV?$string_output_adapter@_W@__crt_stdio_output@@@2@@__crt_stdio_output@@AEAAX_KI_N@Z
0x0006c404: ?get_parameter_type@?$positional_parameter_base@DV?$string_output_adapter@D@__crt_stdio_output@@@__crt_stdio_output@@CA?AW4parameter_type@12@H@Z
0x0006c4a4: __iswcsym
0x0006c4bc: __acrt_show_wide_message_box
0x0006c4e8: ?release@?$__crt_unique_heap_ptr@U__crt_multibyte_data@@U__crt_internal_free_policy@@@@QEAAXXZ
0x0006c558: unDNameGenerateCHPE
0x0006c57c: ??_C@_03KHICJKCI@?4?4?4@
0x0006c5a4: ??$?RUlconv@@@__crt_internal_free_policy@@QEBAXQEBUlconv@@@Z
0x0006c5f0: ??_C@_1O@EOKHMKJK@?$AAs?$AAm?$AAs?$AA?9?$AAF?$AAI@
0x0006c634: ??_C@_1O@MMNBFLIA@?$AAM?$AAo?$AAn?$AAd?$AAa?$AAy@
0x0006c674: wcsnlen
0x0006c68c: ??_C@_0BL@CLIPGLGB@?$GAdynamic?5initializer?5for?5?8@
0x0006c6d0: ??_C@_09KFNFGKHF@__swift_2@
0x0006c6fc: ?get_parameter_type@?$positional_parameter_base@DV?$string_output_adapter@D@__crt_stdio_output@@@__crt_stdio_output@@CA?AW4parameter_type@12@G@Z
0x0006c79c: __guard_xfg_dispatch_icall_fptr
0x0006c7cc: _ctrlfp
0x0006c7e4: ??_C@_15DKDJEOND@?$AAk?$AAy@
0x0006c810: __imp_CloseHandle
0x0006c830: ?type_case_integer@?$output_processor@_WV?$string_output_adapter@_W@__crt_stdio_output@@V?$standard_base@_WV?$string_output_adapter@_W@__crt_stdio_output@@@2@@__crt_stdio_output@@AEAA_NI_N@Z
0x0006c900: ??_C@_01GBGANLPD@0@
0x0006c924: ?_deallocate@?$__crt_win32_buffer@_WU__crt_win32_buffer_internal_dynamic_resizing@@@@AEAAXXZ
0x0006c990: __p__wenviron
0x0006c9ac: __acrt_LCIDToLocaleName
0x0006c9d4: _commit
0x0006c9ec: ??$extract_argument_from_va_list@E_J@?$positional_parameter_base@_WV?$string_output_adapter@_W@__crt_stdio_output@@@__crt_stdio_output@@IEAA_NAEA_J@Z
0x0006ca90: ?find_next_state@?$output_processor@DV?$stream_output_adapter@D@__crt_stdio_output@@V?$positional_parameter_base@DV?$stream_output_adapter@D@__crt_stdio_output@@@2@@__crt_stdio_output@@AEBA?AW4state@2@DW432@@Z
0x0006cb70: ??_C@_1M@GEPAFMDL@?$AAe?$AAs?$AA?9?$AAP?$AAA@
0x0006cbac: ??_C@_06LJBABKPM@class?5@
0x0006cbd4: ??_C@_1M@GFMCHPE@?$AAh?$AAe?$AA?9?$AAI?$AAL@
0x0006cc10: ?allocate@?$__crt_win32_buffer@_WU__crt_win32_buffer_internal_dynamic_resizing@@@@QEAAH_K@Z
0x0006cc7c: ??_C@_1M@BIBDDEMK@?$AAz?$AAh?$AA?9?$AAC?$AAN@
0x0006ccb8: ??HStringLiteral@@QEBA?AU0@H@Z
0x0006cce8: _get_fmode
0x0006cd04: ?is_valid@?$__crt_unique_heap_ptr@_WU__crt_internal_free_policy@@@@QEBA_NXZ
0x0006cd60: ??$extract_argument_from_va_list@PEAUansi_string@?1??type_case_Z@?$output_processor@DV?$stream_output_adapter@D@__crt_stdio_output@@V?$positional_parameter_base@DV?$stream_output_adapter@D@__crt_stdio_output@@@2@@__crt_stdio_output@@AEAA_NXZ@PEAU1?1??234@AEAA_NXZ@@?$standard_base@DV?$stream_output_adapter@D@__crt_stdio_output@@@__crt_stdio_output@@IEAA_NAEAPEAUansi_string@?1??type_case_Z@?$output_processor@DV?$stream_output_adapter@D@__crt_stdio_output@@V?$positional_parameter_base@DV?$stream_output_adapter@D@__crt_stdio_output@@@2@@1@AEAA_NXZ@@Z
0x0006cf98: ?Constructor@_HeapManager@@QEAAXP6APEAX_K@ZP6AXPEAX@Z@Z
0x0006cfe0: ??U@YA?AW4__acrt_fenv_abstract_control@@W40@0@Z
0x0006d020: _iswspace_l
0x0006d03c: ??_7pairNode@@6B@
0x0006d05c: ??I@YA?AW4__acrt_fenv_machine_sse_status@@W40@0@Z
0x0006d09c: ??$doPchar@$00@DName@@AEAAXPEBDH@Z
0x0006d0d0: ??_C@_1M@GCCMIGPJ@?$AAt?$AAr?$AA?9?$AAt?$AAr@
0x0006d10c: ?deallocate@__crt_stdio_stream@@QEAAXXZ
0x0006d144: ?state_case_type@?$output_processor@_WV?$stream_output_adapter@_W@__crt_stdio_output@@V?$positional_parameter_base@_WV?$stream_output_adapter@_W@__crt_stdio_output@@@2@@__crt_stdio_output@@AEAA_NXZ
0x0006d218: __std_type_info_destroy_list
0x0006d244: ??$forward@AEAViterator@TryBlockMap4@FH4@@@std@@YAAEAViterator@TryBlockMap4@FH4@@AEAV123@@Z
0x0006d2b0: ??$get_or_create_environment_nolock@$$V@?$__crt_char_traits@D@@SAPEAPEADXZ
0x0006d30c: _fmode
0x0006d324: ??_C@_15DEOPBLCG@?$AAp?$AAl@
0x0006d350: SetEnvironmentVariableW
0x0006d378: ??_C@_1EO@IJIOEFOH@?$AAa?$AAp?$AAi?$AA?9?$AAm?$AAs?$AA?9?$AAw?$AAi?$AAn?$AA?9?$AAr?$AAt?$AAc?$AAo@
0x0006d3ec: ?state_case_dot@?$output_processor@_WV?$string_output_adapter@_W@__crt_stdio_output@@V?$format_validation_base@_WV?$string_output_adapter@_W@__crt_stdio_output@@@2@@__crt_stdio_output@@AEAA_NXZ
0x0006d4bc: _vsnprintf
0x0006d4d8: ??_C@_1CC@IHCNOMIN@?$AAa?$AAm?$AAe?$AAr?$AAi?$AAc?$AAa?$AAn?$AA?9?$AAe?$AAn?$AAg?$AAl?$AAi?$AAs@
0x0006d548: ??_C@_1M@KBJALCPI@?$AAe?$AAs?$AA?9?$AAU?$AAY@
0x0006d584: ??$type_case_integer_parse_into_buffer@I@?$output_processor@DV?$string_output_adapter@D@__crt_stdio_output@@V?$standard_base@DV?$string_output_adapter@D@__crt_stdio_output@@@2@@__crt_stdio_output@@AEAAXII_N@Z
0x0006d664: ??_7DNameNode@@6B@
0x0006d688: ??4?$__crt_unique_heap_ptr@DU__crt_internal_free_policy@@@@QEAAAEAV0@$$QEAV0@@Z
0x0006d6e8: ??_C@_1M@CGFMKEEK@?$AAe?$AAs?$AA?9?$AAP?$AAR@
0x0006d724: ?reset_and_return@__crt_mbstring@@YA_K_KPEAU_Mbstatet@@@Z
0x0006d76c: ??$?0AEBV?$stream_output_adapter@_W@__crt_stdio_output@@AEB_KAEBQEB_WAEBQEAU__crt_locale_pointers@@AEBQEAD@?$format_validation_base@_WV?$stream_output_adapter@_W@__crt_stdio_output@@@__crt_stdio_output@@IEAA@AEBV?$stream_output_adapter@_W@1@AEB_KAEBQEB_WAEBQEAU__crt_locale_pointers@@AEBQEAD@Z
0x0006d8a0: ?getPointerTypeArray@UnDecorator@@CA?AVDName@@AEBV2@0@Z
0x0006d8e8: _crt_atexit
0x0006d904: ??_C@_1CE@NMDMOEEB@?$AAs?$AAp?$AAa?$AAn?$AAi?$AAs?$AAh?$AA?9?$AAn?$AAi?$AAc?$AAa?$AAr?$AAa?$AAg@
0x0006d974: ?type_case_u@?$output_processor@_WV?$stream_output_adapter@_W@__crt_stdio_output@@V?$standard_base@_WV?$stream_output_adapter@_W@__crt_stdio_output@@@2@@__crt_stdio_output@@AEAA_NXZ
0x0006da38: ?getPtrRefType@UnDecorator@@CA?AVDName@@AEBV2@0W4IndirectionKind@@@Z
0x0006da8c: ??0HandlerMap4@FH4@@QEAA@PEBUTryBlockMapEntry4@1@_KH@Z
0x0006dad4: ??_C@_1M@BMLMEKGI@?$AAa?$AAr?$AA?9?$AAb?$AAh@
0x0006db10: ??_C@_1BA@NPNJKIBL@?$AAc?$AAh?$AAi?$AAn?$AAe?$AAs?$AAe@
0x0006db58: ??_C@_15BGHADCNK@?$AAm?$AAk@
0x0006db84: ??_C@_1M@OLJCMLGM@?$AAe?$AAs?$AA?9?$AAP?$AAE@
0x0006dbc0: ?_deallocate@?$__crt_win32_buffer@DU__crt_win32_buffer_internal_dynamic_resizing@@@@AEAAXXZ
0x0006dc2c: ?state_count@?$standard_base@_WV?$stream_output_adapter@_W@__crt_stdio_output@@@__crt_stdio_output@@KAIXZ
0x0006dca4: ??$ensure_buffer_is_big_enough@D@formatting_buffer@__crt_stdio_output@@QEAA_N_K@Z
0x0006dd04: ??_C@_06EHJMALKF@short?5@
0x0006dd2c: ??_C@_1M@HEIIGGJD@?$AAe?$AAs?$AA?9?$AAh?$AAn@
0x0006dd68: ?type_case_c_tchar@?$output_processor@_WV?$stream_output_adapter@_W@__crt_stdio_output@@V?$format_validation_base@_WV?$stream_output_adapter@_W@__crt_stdio_output@@@2@@__crt_stdio_output@@AEAA_N_W@Z
0x0006de40: ?getDispatchTarget@UnDecorator@@CA?AVDName@@XZ
0x0006de80: ?parse_int_from_format_string@?$output_processor@DV?$stream_output_adapter@D@__crt_stdio_output@@V?$positional_parameter_base@DV?$stream_output_adapter@D@__crt_stdio_output@@@2@@__crt_stdio_output@@AEAA_NQEAH@Z
0x0006df64: ??_C@_0BF@LNLGBBNL@?$GAtemplate?9parameter?9@
0x0006dfa0: ??$__crt_fast_decode_pointer@P6AXH@Z@@YAP6AXH@ZQ6AXH@Z@Z
0x0006dfe8: ??_C@_1M@NDBPDDAL@?$AAm?$AAs?$AA?9?$AAb?$AAn@
0x0006e024: ??_C@_15CABMMOGH@?$AAt?$AAh@
0x0006e050: __imp_RtlLookupFunctionEntry
0x0006e07c: __scrt_initialize_onexit_tables
0x0006e0ac: ??_7DNameStatusNode@@6B@
0x0006e0d4: ??_C@_1M@GAOBIPA@?$AAe?$AAs?$AA?9?$AAu?$AAy@
0x0006e110: ??$tcstol@AEAPEB_WPEAPEA_WH@?$__crt_char_traits@_W@@SAJAEAPEB_W$$QEAPEAPEA_W$$QEAH@Z
0x0006e174: ??_C@_1M@IGHABKPI@?$AAm?$AAk?$AA?9?$AAM?$AAK@
0x0006e1b0: ??_C@_17HCHCOKMG@?$AAS?$AAe?$AAp@
0x0006e1e0: _purecall
0x0006e1f8: ReadFile
0x0006e210: _isctype
0x0006e228: ?compare_equals@?$__crt_simd_traits@$00G@@SA?AT__m256i@@T2@0@Z
0x0006e278: ?state_case_flag@?$output_processor@DV?$string_output_adapter@D@__crt_stdio_output@@V?$positional_parameter_base@DV?$string_output_adapter@D@__crt_stdio_output@@@2@@__crt_stdio_output@@AEAA_NXZ
0x0006e348: ??_C@_0BE@KINNKFDA@LocateXStateFeature@
0x0006e380: ??_C@_1M@NDPIFLFI@?$AAs?$AAe?$AA?9?$AAn?$AAo@
0x0006e3bc: ??_C@_01JOAMLHOP@?9@
0x0006e3e0: ??0?$__crt_unique_heap_ptr@U__crt_multibyte_data@@U__crt_internal_free_policy@@@@QEAA@QEAU__crt_multibyte_data@@@Z
0x0006e464: _iswxdigit_l
0x0006e480: ?debug_info@?$__crt_win32_buffer@DU__crt_win32_buffer_internal_dynamic_resizing@@@@QEBAAEBV__crt_win32_buffer_empty_debug_info@@XZ
0x0006e514: ?DecompFuncInfo@FH4@@YA_JPEAEAEAUFuncInfo4@1@_KH@Z
0x0006e558: ?save_state@?$c_string_character_source@D@__crt_strtox@@QEBAPEBDXZ
0x0006e5ac: ?bit_scan_reverse@__crt_strtox@@YAII@Z
0x0006e5e4: __raise_securityfailure
0x0006e60c: ??$type_case_integer_parse_into_buffer@I@?$output_processor@_WV?$string_output_adapter@_W@__crt_stdio_output@@V?$format_validation_base@_WV?$string_output_adapter@_W@__crt_stdio_output@@@2@@__crt_stdio_output@@AEAAXII_N@Z
0x0006e6f8: ??_C@_1O@CEDCILHN@?$AA?$CI?$AAn?$AAu?$AAl?$AAl?$AA?$CJ@
0x0006e740: ?state_case_normal_tchar@?$output_processor@DV?$string_output_adapter@D@__crt_stdio_output@@V?$positional_parameter_base@DV?$string_output_adapter@D@__crt_stdio_output@@@2@@__crt_stdio_output@@AEAA_ND@Z
0x0006e81c: ??$tcschr@AEBQEADD@?$__crt_char_traits@D@@SAPEADAEBQEAD$$QEAD@Z
0x0006e86c: ?type_case_integer@?$output_processor@_WV?$stream_output_adapter@_W@__crt_stdio_output@@V?$format_validation_base@_WV?$stream_output_adapter@_W@__crt_stdio_output@@@2@@__crt_stdio_output@@AEAA_NI_N@Z
0x0006e944: _ismbbalpha
0x0006e960: ??_C@_1M@DDMJFMGJ@?$AAa?$AAr?$AA?9?$AAk?$AAw@
0x0006e99c: __guard_xfg_table_dispatch_icall_fptr
0x0006e9d0: ??_C@_0BA@KKLDJDLB@?$GAlocal?5vftable?8@
0x0006ea08: ??$extract_argument_from_va_list@I_J@?$standard_base@_WV?$stream_output_adapter@_W@__crt_stdio_output@@@__crt_stdio_output@@IEAA_NAEA_J@Z
0x0006eaa0: ?begin@UWMap4@FH4@@QEAA?AViterator@12@XZ
0x0006ead8: ??_C@_1BG@KDCPGJGB@?$AAa?$AAz?$AA?9?$AAa?$AAz?$AA?9?$AAc?$AAy?$AAr?$AAl@
0x0006eb30: ?type_case_s@?$output_processor@DV?$string_output_adapter@D@__crt_stdio_output@@V?$format_validation_base@DV?$string_output_adapter@D@__crt_stdio_output@@@2@@__crt_stdio_output@@AEAA_NXZ
0x0006ebfc: ??$parse_integer@KV?$c_string_character_source@_W@__crt_strtox@@@__crt_strtox@@YAKQEAU__crt_locale_pointers@@V?$c_string_character_source@_W@0@H_N@Z
0x0006eca0: ??_C@_04OKOHEJBO@?5?$DP?$DP?5@
0x0006ecd0: ??0?$common_data@D@__crt_stdio_output@@IEAA@XZ
0x0006ed10: ?allocate@__crt_win32_buffer_internal_dynamic_resizing@@SAHQEAPEAX_KAEBV__crt_win32_buffer_empty_debug_info@@@Z
0x0006ed90: ??$is_pointer_specifier@_W@?$positional_parameter_base@_WV?$string_output_adapter@_W@__crt_stdio_output@@@__crt_stdio_output@@CA_N_W@Z
0x0006ee28: ??_C@_08LHJFAFGD@operator@
0x0006ee54: ??_C@_1CC@NBEBAODI@?$AAs?$AAp?$AAa?$AAn?$AAi?$AAs?$AAh?$AA?9?$AAh?$AAo?$AAn?$AAd?$AAu?$AAr?$AAa@
0x0006eec4: ??_C@_02ECNGHCIF@?$CL?$CL@
0x0006eef0: ??_C@_1M@EIBJEEPA@?$AAm?$AAs?$AA?9?$AAM?$AAY@
0x0006ef2c: __newcumap
0x0006ef48: ?detach@?$__crt_unique_heap_ptr@PEA_WU__crt_internal_free_policy@@@@QEAAPEAPEA_WXZ
0x0006efac: ??0?$__crt_unique_heap_ptr@DU__crt_public_free_policy@@@@QEAA@QEAD@Z
0x0006f000: _wcmdln
0x0006f018: __acrt_get_process_end_policy
0x0006f044: ??_C@_1M@OOJFGBHE@?$AAa?$AAr?$AA?9?$AAL?$AAB@
0x0006f080: ??_C@_1M@DHBHFONH@?$AAc?$AAy?$AA?9?$AAg?$AAb@
0x0006f0bc: ??_C@_1M@HBMHBGAK@?$AAs?$AAv?$AA?9?$AAF?$AAI@
0x0006f0f8: ?type_case_s@?$output_processor@_WV?$stream_output_adapter@_W@__crt_stdio_output@@V?$positional_parameter_base@_WV?$stream_output_adapter@_W@__crt_stdio_output@@@2@@__crt_stdio_output@@AEAA_NXZ
0x0006f1c8: ?state_case_size@?$output_processor@DV?$string_output_adapter@D@__crt_stdio_output@@V?$format_validation_base@DV?$string_output_adapter@D@__crt_stdio_output@@@2@@__crt_stdio_output@@AEAA_NXZ
0x0006f298: _pwctype
0x0006f2b0: ??_C@_03OEIAHPBN@INF@
0x0006f2d4: ??_C@_1M@IELFGMHA@?$AAk?$AAn?$AA?9?$AAi?$AAn@
0x0006f310: ??$peek_va_arg@C@__crt_stdio_output@@YACPEAD@Z
0x0006f350: _ischartype_l
0x0006f36c: ?type_case_o@?$output_processor@DV?$string_output_adapter@D@__crt_stdio_output@@V?$format_validation_base@DV?$string_output_adapter@D@__crt_stdio_output@@@2@@__crt_stdio_output@@AEAA_NXZ
0x0006f438: ?release@?$__crt_unique_heap_ptr@DU__crt_internal_free_policy@@@@QEAAXXZ
0x0006f490: ?StateFromIp@__FrameHandler4@@SAHPEAUFuncInfo4@FH4@@PEAU_xDISPATCHER_CONTEXT@@_K@Z
0x0006f4f4: __CastGuardVftablesEnd
0x0006f51c: ?type_case_n@?$output_processor@DV?$string_output_adapter@D@__crt_stdio_output@@V?$standard_base@DV?$string_output_adapter@D@__crt_stdio_output@@@2@@__crt_stdio_output@@AEAA_NXZ
0x0006f5dc: ?__acrt_fenv_unshift_abstract_sse_status@@YA?AW4__acrt_fenv_abstract_status@@W41@@Z
0x0006f640: ??$tcstol@PEBDPEAPEADH@?$__crt_char_traits@D@@SAJ$$QEAPEBD$$QEAPEAPEAD$$QEAH@Z
0x0006f6a0: ??0bad_exception@std@@QEAA@AEBV01@@Z
0x0006f6d4: ??_C@_1M@HJOOJFMA@?$AAf?$AAr?$AA?9?$AAC?$AAA@
0x0006f710: _controlfp
0x0006f72c: ?raw_length@pairNode@@UEBAHXZ
0x0006f758: DeleteCriticalSection
0x0006f77c: ??_C@_17FNLKOI@?$AAO?$AAc?$AAt@
0x0006f7ac: ??_C@_1M@KGADAODK@?$AAc?$AAa?$AA?9?$AAe?$AAs@
0x0006f7e8: ?wcschr@@YAPEA_WPEA_W_W@Z
0x0006f810: ?validate_and_update_state_at_end_of_format_string@?$format_validation_base@_WV?$stream_output_adapter@_W@__crt_stdio_output@@@__crt_stdio_output@@IEBA_NXZ
0x0006f8bc: _recalloc_base
0x0006f8dc: ?validate_and_store_parameter_data@?$positional_parameter_base@DV?$stream_output_adapter@D@__crt_stdio_output@@@__crt_stdio_output@@AEAA_NAEAUparameter_data@12@W4parameter_type@12@DW4length_modifier@2@@Z
0x0006f9b8: ??_C@_1M@BIKNHHPF@?$AAi?$AAs?$AA?9?$AAi?$AAs@
0x0006f9f4: ?is_valid@?$__crt_unique_heap_ptr@XU__crt_internal_free_policy@@@@QEBA_NXZ
0x0006fa50: _utf8_no_of_trailbytes
0x0006fa78: ??$__crt_fast_decode_pointer@P6AXPEB_W00I_K@Z@@YAP6AXPEB_W00I_K@ZQ6AX000I1@Z@Z
0x0006fad8: ?type_case_x@?$output_processor@_WV?$stream_output_adapter@_W@__crt_stdio_output@@V?$standard_base@_WV?$stream_output_adapter@_W@__crt_stdio_output@@@2@@__crt_stdio_output@@AEAA_NXZ
0x0006fb9c: _SetImageBase
0x0006fbb8: ?release@?$__crt_unique_heap_ptr@U__crt_locale_pointers@@U__crt_internal_free_policy@@@@QEAAXXZ
0x0006fc28: ??_C@_17EGKACKIF@?$AAD?$AAe?$AAc@
0x0006fc58: ?release@?$__crt_unique_heap_ptr@P6AXXZU__crt_internal_free_policy@@@@QEAAXXZ
0x0006fcb4: strpbrk
0x0006fccc: ??$tcslen@AEBQEA_W@?$__crt_char_traits@_W@@SA_KAEBQEA_W@Z
0x0006fd14: free
0x0006fd28: ??_C@_1O@KOHBJJI@?$AAs?$AAy?$AAr?$AA?9?$AAs?$AAy@
0x0006fd68: ??$is_wide_character_specifier@_W@__crt_stdio_output@@YA_N_K_WW4length_modifier@0@@Z
0x0006fdcc: __acrt_execute_uninitializers
0x0006fdf8: ??$tcsnicoll@AEBQEB_WAEAPEA_WAEB_K@?$__crt_char_traits@_W@@SAHAEBQEB_WAEAPEA_WAEB_K@Z
0x0006fe5c: _fputwchar
0x0006fe78: ?type_case_d@?$output_processor@DV?$stream_output_adapter@D@__crt_stdio_output@@V?$standard_base@DV?$stream_output_adapter@D@__crt_stdio_output@@@2@@__crt_stdio_output@@AEAA_NXZ
0x0006ff38: ??_C@_1M@DMJDKLKM@?$AAa?$AAr?$AA?9?$AAs?$AAy@
0x0006ff74: ?get_parameter_type@?$positional_parameter_base@DV?$stream_output_adapter@D@__crt_stdio_output@@@__crt_stdio_output@@CA?AW4parameter_type@12@I@Z
0x00070014: ?isUDTThunk@DName@@QEBAHXZ
0x00070040: ??$is_overflow_condition@_K@__crt_strtox@@YA_NI_K@Z
0x00070084: ??_C@_0M@GAIFPFIP@protected?3?5@
0x000700b4: ?return_illegal_sequence@__crt_mbstring@@YA_KPEAU_Mbstatet@@@Z
0x00070104: ?maximum_signed_value@__crt_strtox@@YAJK@Z
0x00070140: ?lock@__crt_stdio_stream@@QEBAXXZ
0x00070170: __chkstk
0x00070188: ?release@?$__crt_unique_heap_ptr@PEAU__crt_stdio_stream_data@@U__crt_internal_free_policy@@@@QEAAXXZ
0x000701fc: ??$__crt_interlocked_compare_exchange_pointer@$$CBDPEAD$$T@@YAPEBDPEDSEBDQEAD$$T@Z
0x00070260: ??_C@_17LMDJEKJN@?$AAF?$AAe?$AAb@
0x00070290: __acrt_fenv_get_fp_status_word_from_exception_mask
0x000702d4: _wcstoi64
0x000702ec: ??_C@_1BC@IEBCMHCM@?$AAM?$AAM?$AA?1?$AAd?$AAd?$AA?1?$AAy?$AAy@
0x0007033c: ??$append@VpcharNode@@@DName@@AEAAXPEBVpcharNode@@@Z
0x00070380: ?state_count@?$format_validation_base@_WV?$stream_output_adapter@_W@__crt_stdio_output@@@__crt_stdio_output@@KAIXZ
0x00070404: ??$__crt_fast_encode_pointer@P6AHPEA_WK_J@Z@@YAP6AHPEA_WK_J@ZQ6AH0K1@Z@Z
0x0007045c: ?get@?$__crt_unique_heap_ptr@DU__crt_internal_free_policy@@@@QEBAPEADXZ
0x000704b4: ??$is_integral_specifier@D@?$positional_parameter_base@DV?$stream_output_adapter@D@__crt_stdio_output@@@__crt_stdio_output@@CA_ND@Z
0x00070548: ??$extract_argument_from_va_list@C_J@?$positional_parameter_base@DV?$string_output_adapter@D@__crt_stdio_output@@@__crt_stdio_output@@IEAA_NAEA_J@Z
0x000705ec: ??_C@_04LAHKHJMA@int?5@
0x00070614: ?strrchr@@YAPEADQEADH@Z
0x0007063c: ??1?$__crt_unique_heap_ptr@U__crt_lc_time_data@@U__crt_internal_free_policy@@@@QEAA@XZ
0x000706a4: ??_R4DNameStatusNode@@6B@
0x000706cc: ??_C@_1M@JKKFDCNP@?$AAz?$AAh?$AA?9?$AAM?$AAO@
0x00070708: ??_C@_1BA@EFMEIEBA@?$AAJ?$AAa?$AAn?$AAu?$AAa?$AAr?$AAy@
0x00070750: __imp_GetProcessHeap
0x00070774: ??_Gexception@std@@UEAAPEAXI@Z
0x000707a4: __newctype
0x000707c0: __acrt_MessageBoxW
0x000707e4: __acrt_signal_action_table_count
0x00070814: ?state_case_width@?$output_processor@_WV?$stream_output_adapter@_W@__crt_stdio_output@@V?$positional_parameter_base@_WV?$stream_output_adapter@_W@__crt_stdio_output@@@2@@__crt_stdio_output@@AEAA_NXZ
0x000708ec: ??_C@_1M@BOFOGHPB@?$AAs?$AAq?$AA?9?$AAa?$AAl@
0x00070928: CloseHandle
0x00070944: _ismbbblank_l
0x00070960: ??_R4charNode@@6B@
0x00070984: IsValidCodePage
0x000709a4: __imp_FreeLibrary
0x000709c4: ??1?$output_processor@_WV?$stream_output_adapter@_W@__crt_stdio_output@@V?$positional_parameter_base@_WV?$stream_output_adapter@_W@__crt_stdio_output@@@2@@__crt_stdio_output@@QEAA@XZ
0x00070a8c: ??_C@_1M@KEJDAAHB@?$AAs?$AAe?$AA?9?$AAS?$AAE@
0x00070ac8: __strncnt
0x00070ae0: ?state_case_dot@?$output_processor@_WV?$string_output_adapter@_W@__crt_stdio_output@@V?$standard_base@_WV?$string_output_adapter@_W@__crt_stdio_output@@@2@@__crt_stdio_output@@AEAA_NXZ
0x00070ba8: ??_C@_1BC@FFJGAPJM@?$AAL?$AAC?$AA_?$AAC?$AAT?$AAY?$AAP?$AAE@
0x00070bf4: ??_C@_13ENNFDPBH@?$AA_@
0x00070c1c: ??8type_info@@QEBA_NAEBV0@@Z
0x00070c48: ??_C@_1BG@EGGKJILM@?$AAu?$AAz?$AA?9?$AAu?$AAz?$AA?9?$AAl?$AAa?$AAt?$AAn@
0x00070ca0: ??0?$__crt_win32_buffer@_WU__crt_win32_buffer_internal_dynamic_resizing@@@@QEAA@XZ
0x00070d04: __acrt_initialize_winapi_thunks
0x00070d34: ?getReturnType@UnDecorator@@CA?AVDName@@PEAV2@@Z
0x00070d74: ??$tcstol@PEB_WPEAPEA_WH@?$__crt_char_traits@_W@@SAJ$$QEAPEB_W$$QEAPEAPEA_W$$QEAH@Z
0x00070dd8: ?getLastChar@charNode@@UEBADXZ
0x00070e08: TlsGetValue
0x00070e24: ??_C@_0BA@KBCDOMBN@?$GAudt?5returning?8@
0x00070e5c: fputc
0x00070e70: ?type_case_X@?$output_processor@_WV?$stream_output_adapter@_W@__crt_stdio_output@@V?$positional_parameter_base@_WV?$stream_output_adapter@_W@__crt_stdio_output@@@2@@__crt_stdio_output@@AEAA_NXZ
0x00070f40: ??0?$__crt_unique_heap_ptr@GU__crt_internal_free_policy@@@@QEAA@QEAG@Z
0x00070f98: ?__acrt_select_exit_lock@@YA?AW4__acrt_lock_id@@XZ
0x00070fdc: _decomp
0x00070ff4: __rtc_izz
0x0007100c: ??$extract_argument_from_va_list@GD@?$standard_base@DV?$string_output_adapter@D@__crt_stdio_output@@@__crt_stdio_output@@IEAA_NAEAD@Z
0x000710a0: ??_C@_05PBJFFIGL@floor@
0x000710c8: __vcrt_getptd_noinit
0x000710ec: ?GetEstablisherFrame@__FrameHandler4@@SAPEA_KPEA_KPEAU_xDISPATCHER_CONTEXT@@PEAUFuncInfo4@FH4@@0@Z
0x00071160: ??HDName@@QEBA?AV0@PEAV0@@Z
0x0007118c: ??$peek_va_arg@_K@__crt_stdio_output@@YA_KPEAD@Z
0x000711cc: ?is_valid@?$__crt_unique_heap_ptr@U__crt_lc_time_data@@U__crt_internal_free_policy@@@@QEBA_NXZ
0x0007123c: _recalloc
0x00071254: ??_C@_15MNCACJLI@?$AA?2?$AA?1@
0x00071284: ??$is_character_specifier@_W@?$positional_parameter_base@_WV?$string_output_adapter@_W@__crt_stdio_output@@@__crt_stdio_output@@CA_N_W@Z
0x0007131c: _getmbcp
0x00071334: ?getMemoryWithBuffer@_HeapManager@@QEAAPEAX_K@Z
0x00071374: ??_C@_1CE@ODILCONM@?$AAs?$AAp?$AAa?$AAn?$AAi?$AAs?$AAh?$AA?9?$AAv?$AAe?$AAn?$AAe?$AAz?$AAu?$AAe@
0x000713e4: ?is_valid@?$__crt_unique_heap_ptr@U__acrt_ptd@@U__crt_internal_free_policy@@@@QEBA_NXZ
0x0007144c: ??0?$__crt_unique_heap_ptr@U__crt_locale_pointers@@U__crt_internal_free_policy@@@@QEAA@QEAU__crt_locale_pointers@@@Z
0x000714d0: ?adjust_hexit@?$output_processor@DV?$stream_output_adapter@D@__crt_stdio_output@@V?$standard_base@DV?$stream_output_adapter@D@__crt_stdio_output@@@2@@__crt_stdio_output@@CADH_N@Z
0x00071594: __stdio_common_vsnwprintf_s
0x000715c0: __guard_fids_table
0x000715e4: _umatherr
0x000715fc: ??$extract_argument_from_va_list@PEAXPEAX@?$positional_parameter_base@_WV?$string_output_adapter@_W@__crt_stdio_output@@@__crt_stdio_output@@IEAA_NAEAPEAX@Z
0x000716a8: ??4iterator@TryBlockMap4@FH4@@QEAAAEAV012@AEBV012@@Z
0x000716ec: __CxxFrameHandler2
0x00071710: ??_C@_07DIBCDNGL@struct?5@
0x0007173c: wctomb_s
0x00071754: ??_C@_1M@JLOOOEGK@?$AAk?$AAo?$AA?9?$AAK?$AAR@
0x00071790: wcspbrk
0x000717a8: __acrt_stdio_free_buffer_nolock
0x000717d8: ??$read_va_arg@PEAUansi_string@?1??type_case_Z@?$output_processor@DV?$string_output_adapter@D@__crt_stdio_output@@V?$standard_base@DV?$string_output_adapter@D@__crt_stdio_output@@@2@@__crt_stdio_output@@AEAA_NXZ@@__crt_stdio_output@@YAPEAUansi_string@?1??type_case_Z@?$output_processor@DV?$string_output_adapter@D@__crt_stdio_output@@V?$standard_base@DV?$string_output_adapter@D@__crt_stdio_output@@@2@@0@AEAA_NXZ@AEAPEAD@Z
0x00071990: ??$get_module_file_name@$$TAEAY0BAF@DH@?$__crt_char_traits@D@@SAK$$QEA$$TAEAY0BAF@D$$QEAH@Z
0x000719fc: ??_C@_1M@OIJHDKJN@?$AAu?$AAr?$AA?9?$AAP?$AAK@
0x00071a38: ?is_positional_parameter_reappearance_consistent@?$positional_parameter_base@_WV?$stream_output_adapter@_W@__crt_stdio_output@@@__crt_stdio_output@@AEAA_NAEBUparameter_data@12@W4parameter_type@12@_WW4length_modifier@2@@Z
0x00071b24: ?set_flag@?$output_processor@_WV?$string_output_adapter@_W@__crt_stdio_output@@V?$standard_base@_WV?$string_output_adapter@_W@__crt_stdio_output@@@2@@__crt_stdio_output@@AEAAXI@Z
0x00071be8: ?state_case_normal_tchar@?$output_processor@DV?$stream_output_adapter@D@__crt_stdio_output@@V?$format_validation_base@DV?$stream_output_adapter@D@__crt_stdio_output@@@2@@__crt_stdio_output@@AEAA_ND@Z
0x00071cc0: ??_C@_09DHDLOLLB@restrict?$CI@
0x00071cf0: ??$extract_argument_from_va_list@I_J@?$standard_base@DV?$string_output_adapter@D@__crt_stdio_output@@@__crt_stdio_output@@IEAA_NAEA_J@Z
0x00071d88: __acrt_lconv_static_decimal
0x00071db4: ?type_case_x@?$output_processor@DV?$stream_output_adapter@D@__crt_stdio_output@@V?$positional_parameter_base@DV?$stream_output_adapter@D@__crt_stdio_output@@@2@@__crt_stdio_output@@AEAA_NXZ
0x00071e80: __dcrt_initial_wide_environment
0x00071eb0: ??_C@_02FDNJECIE@?$CB?$DN@
0x00071edc: __p__mbctype
0x00071ef8: ??$?0AEBV?$string_output_adapter@_W@__crt_stdio_output@@AEB_KAEBQEB_WAEBQEAU__crt_locale_pointers@@AEBQEAD@?$standard_base@_WV?$string_output_adapter@_W@__crt_stdio_output@@@__crt_stdio_output@@IEAA@AEBV?$string_output_adapter@_W@1@AEB_KAEBQEB_WAEBQEAU__crt_locale_pointers@@AEBQEAD@Z
0x00072024: ??_C@_1BM@LGMDBEPD@?$AAi?$AAr?$AAi?$AAs?$AAh?$AA?9?$AAe?$AAn?$AAg?$AAl?$AAi?$AAs?$AAh@
0x0007208c: ??0TryBlockMap4@FH4@@QEAA@PEBUFuncInfo4@1@_K@Z
0x000720cc: _d_mzero
0x000720e4: _RTC_Initialize
0x00072104: __imp_GetCurrentProcessId
0x0007212c: __vcrt_lock
0x00072148: __security_check_cookie
0x00072170: ?isPinPtr@DName@@QEBAHXZ
0x00072198: ?getBasicDataType@UnDecorator@@CA?AVDName@@AEBV2@@Z
0x000721dc: ??4DName@@QEAAAEAV0@AEBV0@@Z
0x00072208: ??_C@_1M@GIENNBFC@?$AAs?$AAw?$AA?9?$AAK?$AAE@
0x00072244: __acrt_lock
0x00072260: ??Eiterator@HandlerMap@__FrameHandler3@@QEAAAEAV012@XZ
0x000722a8: ?get_parameter_type@?$positional_parameter_base@_WV?$stream_output_adapter@_W@__crt_stdio_output@@@__crt_stdio_output@@CA?AW4parameter_type@12@_J@Z
0x0007234c: ??_C@_1M@EJLEOGAE@?$AAe?$AAl?$AA?9?$AAg?$AAr@
0x00072388: ??0?$stream_output_adapter@_W@__crt_stdio_output@@QEAA@QEAU_iobuf@@@Z
0x000723dc: ?__RVAtoRealOffset@@YA_KPEAU_xDISPATCHER_CONTEXT@@H@Z
0x00072420: ??_C@_07KOLFKCDI@__cdecl@
0x00072448: ??_C@_1BC@LLOKLNP@?$AAa?$AAm?$AAe?$AAr?$AAi?$AAc?$AAa?$AAn@
0x00072494: ??4DName@@QEAAAEAV0@W4DNameStatus@@@Z
0x000724c8: ??1?$output_adapter_data@_WV?$stream_output_adapter@_W@__crt_stdio_output@@@__crt_stdio_output@@QEAA@XZ
0x00072540: __xmm@80000000000000008000000000000000
0x00072578: _should_initialize_environment
0x000725a8: ??_C@_1M@EJALMLHM@?$AAa?$AAr?$AA?9?$AAl?$AAb@
0x000725e4: ??$set_program_name@PEA_W@?$__crt_char_traits@_W@@SAX$$QEAPEA_W@Z
0x00072634: HeapFree
0x0007264c: GetFileType
0x00072668: ??_C@_1M@CPAMEDFI@?$AAx?$AAh?$AA?9?$AAz?$AAa@
0x000726a4: ??_C@_02FPIMKNGF@?$CK?$DN@
0x000726d0: ??_C@_1O@FMCELNAJ@?$AAs?$AAm?$AAj?$AA?9?$AAN?$AAO@
0x00072714: ??_C@_1M@BNBLJCGH@?$AAe?$AAn?$AA?9?$AAI?$AAE@
0x00072750: ??_C@_0O@KKBNKAPF@LCMapStringEx@
0x00072780: ?type_case_s_compute_narrow_string_length@?$output_processor@DV?$stream_output_adapter@D@__crt_stdio_output@@V?$format_validation_base@DV?$stream_output_adapter@D@__crt_stdio_output@@@2@@__crt_stdio_output@@AEBAHHD@Z
0x00072868: __acrt_lowio_unlock_fh
0x00072890: _get_initial_wide_environment
0x000728bc: ?type_case_d@?$output_processor@DV?$string_output_adapter@D@__crt_stdio_output@@V?$format_validation_base@DV?$string_output_adapter@D@__crt_stdio_output@@@2@@__crt_stdio_output@@AEAA_NXZ
0x00072988: ??1?$__crt_unique_heap_ptr@P6AXXZU__crt_internal_free_policy@@@@QEAA@XZ
0x000729e0: malloc
0x000729f8: ?should_skip_type_state_output@?$standard_base@DV?$string_output_adapter@D@__crt_stdio_output@@@__crt_stdio_output@@IEBA_NXZ
0x00072a84: __imp_GetProcAddress
0x00072aa8: RtlAlternateDosPathSeperatorString
0x00072adc: ?resetBuffer@HandlerMap4@FH4@@QEAAXXZ
0x00072b10: ?get_parameter_type@?$positional_parameter_base@_WV?$string_output_adapter@_W@__crt_stdio_output@@@__crt_stdio_output@@CA?AW4parameter_type@12@_W@Z
0x00072bb4: _wenviron_table
0x00072bd4: ??_C@_03JIHJHPIE@Jan@
0x00072bf8: ?state_case_width@?$output_processor@DV?$string_output_adapter@D@__crt_stdio_output@@V?$positional_parameter_base@DV?$string_output_adapter@D@__crt_stdio_output@@@2@@__crt_stdio_output@@AEAA_NXZ
0x00072ccc: ?adjust_hexit@?$output_processor@_WV?$string_output_adapter@_W@__crt_stdio_output@@V?$format_validation_base@_WV?$string_output_adapter@_W@__crt_stdio_output@@@2@@__crt_stdio_output@@CADH_N@Z
0x00072d9c: _wcsicmp
0x00072db4: ?getExternalDataType@UnDecorator@@CA?AVDName@@AEBV2@@Z
0x00072dfc: ??3@YAXPEAX_K@Z
0x00072e1c: __scrt_release_startup_lock
0x00072e48: ??0_Nontrivial_dummy_type@std@@QEAA@XZ
0x00072e80: _NLG_Notify
0x00072e9c: __threadhandle
0x00072ebc: ??_C@_0BA@EPCJIIPD@GetDateFormatEx@
0x00072ef0: SetFilePointerEx
0x00072f10: _GetThrowImageBase
0x00072f34: __acrt_heap
0x00072f50: ??_5DName@@QEAAAEAV0@AEBV0@@Z
0x00072f7c: ??_C@_1BI@KOELBBPJ@?$AAn?$AAe?$AAw?$AA?9?$AAz?$AAe?$AAa?$AAl?$AAa?$AAn?$AAd@
0x00072fd8: ??_C@_1CC@OCOLPALL@?$AAs?$AAp?$AAa?$AAn?$AAi?$AAs?$AAh?$AA?9?$AAc?$AAo?$AAl?$AAo?$AAm?$AAb?$AAi@
0x00073048: ??$is_overflow_condition@K@__crt_strtox@@YA_NIK@Z
0x00073088: ??$extract_argument_from_va_list@H_J@?$standard_base@_WV?$stream_output_adapter@_W@__crt_stdio_output@@@__crt_stdio_output@@IEAA_NAEA_J@Z
0x00073120: ?state_case_dot@?$output_processor@DV?$string_output_adapter@D@__crt_stdio_output@@V?$format_validation_base@DV?$string_output_adapter@D@__crt_stdio_output@@@2@@__crt_stdio_output@@AEAA_NXZ
0x000731ec: _ismbbgraph_l
0x00073208: ??$read_va_arg@E@__crt_stdio_output@@YAEAEAPEAD@Z
0x00073248: ?GetMaxState@__FrameHandler3@@SAHPEAU_xDISPATCHER_CONTEXT@@PEBU_s_FuncInfo@@@Z
0x000732a8: __imp_IsProcessorFeaturePresent
0x000732d8: ?type_case_o@?$output_processor@DV?$stream_output_adapter@D@__crt_stdio_output@@V?$standard_base@DV?$stream_output_adapter@D@__crt_stdio_output@@@2@@__crt_stdio_output@@AEAA_NXZ
0x00073398: ??_C@_0CD@CGAJBKEJ@?$GAvector?5copy?5constructor?5iterat@
0x000733e0: ?wide_null_string@?$output_processor@_WV?$string_output_adapter@_W@__crt_stdio_output@@V?$format_validation_base@_WV?$string_output_adapter@_W@__crt_stdio_output@@@2@@__crt_stdio_output@@CAPEA_WXZ
0x000734b4: ?parse_int_from_format_string@?$output_processor@DV?$string_output_adapter@D@__crt_stdio_output@@V?$format_validation_base@DV?$string_output_adapter@D@__crt_stdio_output@@@2@@__crt_stdio_output@@AEAA_NQEAH@Z
0x00073594: ??_C@_1M@HDBKGOGH@?$AAp?$AAl?$AA?9?$AAp?$AAl@
0x000735d0: __acrt_get_windowing_model_policy
0x00073600: ??$read_va_arg@I@__crt_stdio_output@@YAIAEAPEAD@Z
0x00073640: ?getLastEntry@HandlerMap4@FH4@@QEAAPEAUHandlerType4@2@XZ
0x00073688: __ascii_towupper
0x000736a8: ??_C@_15NCHGBGLK@?$AAt?$AAe@
0x000736d4: _atoi_l
0x000736ec: _wtoi
0x00073700: ??1?$output_adapter_data@DV?$string_output_adapter@D@__crt_stdio_output@@@__crt_stdio_output@@QEAA@XZ
0x00073774: ??_C@_1O@MKEKBLAH@?$AAd?$AAi?$AAv?$AA?9?$AAM?$AAV@
0x000737b8: __acrt_LocateXStateFeature
0x000737e4: ?getMagicNum@__FrameHandler4@@SAIPEAUFuncInfo4@FH4@@@Z
0x0007382c: ?should_skip_type_state_output@?$positional_parameter_base@_WV?$stream_output_adapter@_W@__crt_stdio_output@@@__crt_stdio_output@@IEBA_NXZ
0x000738c8: ?is_valid@?$__crt_unique_heap_ptr@PEADU__crt_internal_free_policy@@@@QEBA_NXZ
0x00073924: ??$read_va_arg@C@__crt_stdio_output@@YACAEAPEAD@Z
0x00073964: ?small_powers_of_ten@?1??multiply_by_power_of_ten@__crt_strtox@@YA_NAEAUbig_integer@2@I@Z@4QBIB
0x000739d4: ?process@?$output_processor@_WV?$stream_output_adapter@_W@__crt_stdio_output@@V?$format_validation_base@_WV?$stream_output_adapter@_W@__crt_stdio_output@@@2@@__crt_stdio_output@@QEAAHXZ
0x00073a9c: __acrt_update_multibyte_info
0x00073ac8: ?advance_to_next_pass@?$standard_base@_WV?$string_output_adapter@_W@__crt_stdio_output@@@__crt_stdio_output@@IEAA_NXZ
0x00073b4c: ??_C@_1O@BCCLBEOE@?$AAu?$AAs?$AAe?$AAr?$AA3?$AA2@
0x00073b8c: ?is_positional_parameter_reappearance_consistent@?$positional_parameter_base@DV?$stream_output_adapter@D@__crt_stdio_output@@@__crt_stdio_output@@AEAA_NAEBUparameter_data@12@W4parameter_type@12@DW4length_modifier@2@@Z
0x00073c74: ??0DName@@QEAA@XZ
0x00073c94: ?set_flag@?$output_processor@DV?$string_output_adapter@D@__crt_stdio_output@@V?$format_validation_base@DV?$string_output_adapter@D@__crt_stdio_output@@@2@@__crt_stdio_output@@AEAAXI@Z
0x00073d5c: ?getESTypes@__FrameHandler4@@SAPEBU_s_ESTypeList@@PEAUFuncInfo4@FH4@@@Z
0x00073db4: __acrt_signal_action_first_fpe_index
0x00073de8: ?has_flag@?$output_processor@DV?$stream_output_adapter@D@__crt_stdio_output@@V?$standard_base@DV?$stream_output_adapter@D@__crt_stdio_output@@@2@@__crt_stdio_output@@AEBA_NI@Z
0x00073ea8: ??1?$__crt_scoped_stack_ptr@_W@@QEAA@XZ
0x00073ee0: GetCurrentThread
0x00073f00: ?multiply@__crt_strtox@@YA_NAEAUbig_integer@1@I@Z
0x00073f40: __acrt_uninitialize
0x00073f64: _initterm_e
0x00073f80: set_terminate
0x00073f9c: _GetImageBase
0x00073fb8: GetCurrentProcess
0x00073fd8: ??_C@_1M@FPEIIFAM@?$AAu?$AAt?$AAf?$AA?9?$AA8@
0x00074014: ??_C@_1M@KBFBEHJF@?$AAe?$AAn?$AA?9?$AAA?$AAU@
0x00074050: ??0pDNameNode@@QEAA@PEAVDName@@@Z
0x00074080: ?write_character_without_count_update@?$stream_output_adapter@D@__crt_stdio_output@@QEBA_ND@Z
0x000740ec: ??$read_va_arg@PEAUansi_string@?1??type_case_Z@?$output_processor@DV?$string_output_adapter@D@__crt_stdio_output@@V?$format_validation_base@DV?$string_output_adapter@D@__crt_stdio_output@@@2@@__crt_stdio_output@@AEAA_NXZ@@__crt_stdio_output@@YAPEAUansi_string@?1??type_case_Z@?$output_processor@DV?$string_output_adapter@D@__crt_stdio_output@@V?$format_validation_base@DV?$string_output_adapter@D@__crt_stdio_output@@@2@@0@AEAA_NXZ@AEAPEAD@Z
0x000742b4: ??_C@_15PHPHCBPF@?$AAk?$AAn@
0x000742e0: ??_C@_1M@PABJILIG@?$AAm?$AAn?$AA?9?$AAm?$AAn@
0x0007431c: ??_C@_17HAEBFAGL@?$AAu?$AAs?$AAa@
0x0007434c: ??$?0AEBV?$stream_output_adapter@D@__crt_stdio_output@@AEB_KAEBQEBDAEBQEAU__crt_locale_pointers@@AEBQEAD@?$positional_parameter_base@DV?$stream_output_adapter@D@__crt_stdio_output@@@__crt_stdio_output@@IEAA@AEBV?$stream_output_adapter@D@1@AEB_KAEBQEBDAEBQEAU__crt_locale_pointers@@AEBQEAD@Z
0x00074480: ?state_case_width@?$output_processor@_WV?$string_output_adapter@_W@__crt_stdio_output@@V?$format_validation_base@_WV?$string_output_adapter@_W@__crt_stdio_output@@@2@@__crt_stdio_output@@AEAA_NXZ
0x00074554: ?type_case_a@?$output_processor@_WV?$string_output_adapter@_W@__crt_stdio_output@@V?$standard_base@_WV?$string_output_adapter@_W@__crt_stdio_output@@@2@@__crt_stdio_output@@AEAA_NXZ
0x00074618: ??_C@_1M@GNKPCCJA@?$AAe?$AAs?$AA?9?$AAb?$AAo@
0x00074654: ??$extract_argument_from_va_list@_W_W@?$positional_parameter_base@DV?$stream_output_adapter@D@__crt_stdio_output@@@__crt_stdio_output@@IEAA_NAEA_W@Z
0x000746f8: __imp_SetConsoleCtrlHandler
0x00074724: ??_C@_04HAPDLBFF@auto@
0x0007474c: ??_C@_1O@BPEAJADD@?$AAz?$AAh?$AA?9?$AAC?$AAH?$AAS@
0x00074790: ??_C@_1O@PLLKBHAB@?$AAs?$AAm?$AAj?$AA?9?$AAn?$AAo@
0x000747d4: ??$extract_argument_from_va_list@PEAUansi_string@?1??type_case_Z@?$output_processor@DV?$string_output_adapter@D@__crt_stdio_output@@V?$format_validation_base@DV?$string_output_adapter@D@__crt_stdio_output@@@2@@__crt_stdio_output@@AEAA_NXZ@PEAU1?1??234@AEAA_NXZ@@?$standard_base@DV?$string_output_adapter@D@__crt_stdio_output@@@__crt_stdio_output@@IEAA_NAEAPEAUansi_string@?1??type_case_Z@?$output_processor@DV?$string_output_adapter@D@__crt_stdio_output@@V?$format_validation_base@DV?$string_output_adapter@D@__crt_stdio_output@@@2@@1@AEAA_NXZ@@Z
0x00074a08: ??$scratch_data@D@formatting_buffer@__crt_stdio_output@@QEAAPEADXZ
0x00074a5c: ?getTemplateTypeArgument@UnDecorator@@CA?AVDName@@XZ
0x00074aa0: ?__crt_compute_required_transform_buffer_count@@YA_KIQEB_W@Z
0x00074aec: ??$extract_argument_from_va_list@_W_W@?$standard_base@DV?$string_output_adapter@D@__crt_stdio_output@@@__crt_stdio_output@@IEAA_NAEA_W@Z
0x00074b84: ??_C@_08NIEOINHE@virtual?5@
0x00074bb0: ??_C@_1O@GIFLHMA@?$AAL?$AAC?$AA_?$AAA?$AAL?$AAL@
0x00074bf0: ??_C@_1BC@ENMNNPAJ@?$AAS?$AAa?$AAt?$AAu?$AAr?$AAd?$AAa?$AAy@
0x00074c3c: _wctomb_s_l
0x00074c58: ??Eiterator@TryBlockMap@__FrameHandler3@@QEAAAEAV012@XZ
0x00074ca0: __acrt_fenv_set_status
0x00074cc8: ??_C@_1M@MAOFCAEA@?$AAe?$AAu?$AA?9?$AAE?$AAS@
0x00074d04: __acrt_initialize_heap
0x00074d2c: ??$type_case_integer_parse_into_buffer@_K@?$output_processor@_WV?$string_output_adapter@_W@__crt_stdio_output@@V?$standard_base@_WV?$string_output_adapter@_W@__crt_stdio_output@@@2@@__crt_stdio_output@@AEAAX_KI_N@Z
0x00074e14: ??$?RU__crt_lowio_handle_data@@@__crt_internal_free_policy@@QEBAXQEBU__crt_lowio_handle_data@@@Z
0x00074e84: wcscmp
0x00074e9c: ??$read_va_arg@_J@__crt_stdio_output@@YA_JAEAPEAD@Z
0x00074ee0: ?debug_info@?$__crt_win32_buffer@_WU__crt_win32_buffer_internal_dynamic_resizing@@@@QEBAAEBV__crt_win32_buffer_empty_debug_info@@XZ
0x00074f74: _handle_errorf
0x00074f94: __acrt_locale_changed_data
0x00074fc0: ??1?$__crt_simd_cleanup_guard@$0A@@@QEAA@XZ
0x00074ffc: ??_C@_15LJNHCMNK@?$AAc?$AAs@
0x00075028: ?allocate@?$__crt_win32_buffer@DU__crt_win32_buffer_internal_dynamic_resizing@@@@QEAAH_K@Z
0x00075094: ?getLexicalFrame@UnDecorator@@CA?AVDName@@XZ
0x000750d0: ??$extract_argument_from_va_list@H_J@?$standard_base@_WV?$string_output_adapter@_W@__crt_stdio_output@@@__crt_stdio_output@@IEAA_NAEA_J@Z
0x00075168: ?getArgumentList@UnDecorator@@CA?AVDName@@XZ
0x000751a4: __acrt_GetLocaleInfoA
0x000751c8: ??$tcstol@AEAPEBDPEAPEADH@?$__crt_char_traits@D@@SAJAEAPEBD$$QEAPEAPEAD$$QEAH@Z
0x00075228: ?narrow_null_string@?$output_processor@DV?$string_output_adapter@D@__crt_stdio_output@@V?$standard_base@DV?$string_output_adapter@D@__crt_stdio_output@@@2@@__crt_stdio_output@@CAPEADXZ
0x000752f0: __scrt_current_native_startup_state
0x00075324: ?type_case_o@?$output_processor@_WV?$string_output_adapter@_W@__crt_stdio_output@@V?$positional_parameter_base@_WV?$string_output_adapter@_W@__crt_stdio_output@@@2@@__crt_stdio_output@@AEAA_NXZ
0x000753f4: ?state_case_precision@?$output_processor@DV?$string_output_adapter@D@__crt_stdio_output@@V?$format_validation_base@DV?$string_output_adapter@D@__crt_stdio_output@@@2@@__crt_stdio_output@@AEAA_NXZ
0x000754c8: ?isArray@DName@@QEBAHXZ
0x000754f0: _d_inf
0x00075508: __acrt_MessageBoxA
0x0007552c: _strtoi64_l
0x00075548: ??$type_case_integer_parse_into_buffer@_K@?$output_processor@DV?$string_output_adapter@D@__crt_stdio_output@@V?$standard_base@DV?$string_output_adapter@D@__crt_stdio_output@@@2@@__crt_stdio_output@@AEAAX_KI_N@Z
0x0007562c: ?multiply_64_32@__crt_strtox@@YA_K_KI@Z
0x00075664: __CxxFrameHandler3
0x00075688: ??1?$__crt_win32_buffer@DU__crt_win32_buffer_no_resizing@@@@QEAA@XZ
0x000756dc: ?should_skip_normal_state_processing@?$positional_parameter_base@_WV?$stream_output_adapter@_W@__crt_stdio_output@@@__crt_stdio_output@@IEAA_NXZ
0x0007577c: ??_C@_1M@JILFNBIM@?$AAk?$AAa?$AA?9?$AAg?$AAe@
0x000757b8: ??YDName@@QEAAAEAV0@AEBUStringLiteral@@@Z
0x000757f0: ??__K_l@@YA?AUStringLiteral@@PEBD_K@Z
0x00075824: ?should_skip_type_state_output@?$positional_parameter_base@DV?$string_output_adapter@D@__crt_stdio_output@@@__crt_stdio_output@@IEBA_NXZ
0x000758bc: __acrt_errno_map_os_error
0x000758e4: _sptype
0x000758fc: ??_C@_03LHCJEHON@nan@
0x00075920: ??_C@_07PGOEDBHP@static?5@
0x0007594c: ?parse_digit@__crt_strtox@@YAID@Z
0x0007597c: ?get_parameter_type@?$positional_parameter_base@_WV?$stream_output_adapter@_W@__crt_stdio_output@@@__crt_stdio_output@@CA?AW4parameter_type@12@F@Z
0x00075a20: ??_C@_0M@CHKKJDAI@MessageBoxA@
0x00075a50: ??_C@_00CNPNBAHC@@
0x00075a74: ?getStartStop@UWMap4@FH4@@QEAAXHHAEAViterator@12@0@Z
0x00075ab8: ??_C@_1M@OPIHOOPI@?$AAm?$AAs?$AA?9?$AAm?$AAy@
0x00075af4: ??_C@_1M@LILEEOGM@?$AAh?$AAr?$AA?9?$AAH?$AAR@
0x00075b30: ?doMSKeywords@UnDecorator@@SAHXZ
0x00075b60: ?getScope@UnDecorator@@CA?AVDName@@XZ
0x00075b94: __acrt_LCMapStringW
0x00075bb8: ??$type_case_integer_parse_into_buffer@_K@?$output_processor@DV?$stream_output_adapter@D@__crt_stdio_output@@V?$format_validation_base@DV?$stream_output_adapter@D@__crt_stdio_output@@@2@@__crt_stdio_output@@AEAAX_KI_N@Z
0x00075ca4: ?type_case_n@?$output_processor@_WV?$stream_output_adapter@_W@__crt_stdio_output@@V?$positional_parameter_base@_WV?$stream_output_adapter@_W@__crt_stdio_output@@@2@@__crt_stdio_output@@AEAA_NXZ
0x00075d74: HeapSize
0x00075d8c: __stdio_common_vfprintf_p
0x00075db4: _tolower_fast_internal
0x00075ddc: GetSystemTimeAsFileTime
0x00075e04: ?m_pGetParameter@UnDecorator@@0P6APEADJ@ZEA
0x00075e40: ??1?$c_string_character_source@_W@__crt_strtox@@QEAA@XZ
0x00075e88: ??_C@_04GKJNKENE@void@
0x00075eb0: ??_C@_17MBJJLFDM@?$AA_?$AA?4?$AA?0@
0x00075ee4: ?type_case_n@?$output_processor@_WV?$string_output_adapter@_W@__crt_stdio_output@@V?$standard_base@_WV?$string_output_adapter@_W@__crt_stdio_output@@@2@@__crt_stdio_output@@AEAA_NXZ
0x00075fa8: _get_terminate
0x00075fc8: ??_C@_1M@GFFOJMCJ@?$AAd?$AAe?$AA?9?$AAd?$AAe@
0x00076004: __imp_ExitProcess
0x00076024: ??_C@_1M@FJNKGKIG@?$AAa?$AAr?$AA?9?$AAe?$AAg@
0x00076060: ??$extract_argument_from_va_list@G_J@?$positional_parameter_base@DV?$string_output_adapter@D@__crt_stdio_output@@@__crt_stdio_output@@IEAA_NAEA_J@Z
0x00076104: __acrt_FlsSetValue
0x00076128: ?DecompTryBlock@TryBlockMap4@FH4@@AEAAXXZ
0x00076160: ??_C@_06EEGAIFAK@?$HLflat?$HN@
0x00076190: __imp_ReadConsoleW
0x000761b4: ??_C@_0M@GAAIMMOH@operator?$DM?$DN?$DO@
0x000761ec: __acrt_lconv_c
0x0007620c: ?type_case_x@?$output_processor@_WV?$string_output_adapter@_W@__crt_stdio_output@@V?$positional_parameter_base@_WV?$string_output_adapter@_W@__crt_stdio_output@@@2@@__crt_stdio_output@@AEAA_NXZ
0x000762dc: ??_C@_1BA@BKPAPBLA@?$AAe?$AAn?$AAg?$AAl?$AAa?$AAn?$AAd@
0x00076324: _ctype_fast_check_internal
0x00076350: ??_C@_1M@KMKMOPHI@?$AAt?$AAa?$AA?9?$AAI?$AAN@
0x0007638c: memcpy_repmovs
0x000763ac: ??_C@_1M@IHMHGAON@?$AAa?$AAr?$AA?9?$AAy?$AAe@
0x000763e8: ?get_parameter_type@?$positional_parameter_base@_WV?$string_output_adapter@_W@__crt_stdio_output@@@__crt_stdio_output@@CA?AW4parameter_type@12@F@Z
0x0007648c: ?type_case_s_compute_narrow_string_length@?$output_processor@_WV?$stream_output_adapter@_W@__crt_stdio_output@@V?$positional_parameter_base@_WV?$stream_output_adapter@_W@__crt_stdio_output@@@2@@__crt_stdio_output@@AEBAHH_W@Z
0x0007657c: ?detach@?$__crt_unique_heap_ptr@_WU__crt_internal_free_policy@@@@QEAAPEA_WXZ
0x000765d8: ??$extract_argument_from_va_list@PEAXPEAX@?$positional_parameter_base@_WV?$stream_output_adapter@_W@__crt_stdio_output@@@__crt_stdio_output@@IEAA_NAEAPEAX@Z
0x00076684: ??_C@_1M@JAOCLHDH@?$AAa?$AAr?$AA?9?$AAm?$AAa@
0x000766c0: ?state_transition_table@?$standard_base@DV?$string_output_adapter@D@__crt_stdio_output@@@__crt_stdio_output@@KAAEBV?$spectre_mitigated_lookup_table@Ustate_transition_pair@__crt_stdio_output@@$0IA@@2@XZ
0x00076798: ?type_case_Z@?$output_processor@_WV?$string_output_adapter@_W@__crt_stdio_output@@V?$standard_base@_WV?$string_output_adapter@_W@__crt_stdio_output@@@2@@__crt_stdio_output@@AEAA_NXZ
0x0007685c: ??_C@_1M@KFCFLMJP@?$AAn?$AAl?$AA?9?$AAb?$AAe@
0x00076898: ??_C@_0M@ELJOJFFH@?0?$DMellipsis?$DO@
0x000768cc: ??$type_case_integer_parse_into_buffer@_K@?$output_processor@DV?$stream_output_adapter@D@__crt_stdio_output@@V?$standard_base@DV?$stream_output_adapter@D@__crt_stdio_output@@@2@@__crt_stdio_output@@AEAAX_KI_N@Z
0x000769b0: ??$get_parameter_type@X@?$positional_parameter_base@DV?$stream_output_adapter@D@__crt_stdio_output@@@__crt_stdio_output@@CA?AW4parameter_type@01@PEAX@Z
0x00076a58: ??_C@_0BC@EOODALEL@Unknown?5exception@
0x00076a90: ??_C@_15OMLEGLOC@?$AAh?$AAi@
0x00076abc: _lseek_nolock
0x00076ad8: ?wide_null_string@?$output_processor@DV?$stream_output_adapter@D@__crt_stdio_output@@V?$standard_base@DV?$stream_output_adapter@D@__crt_stdio_output@@@2@@__crt_stdio_output@@CAPEA_WXZ
0x00076ba0: ?getLastChar@pcharNode@@UEBADXZ
0x00076bd0: ?get_current_state_index@__crt_state_management@@YA_KXZ
0x00076c18: ?detach@?$__crt_unique_heap_ptr@GU__crt_internal_free_policy@@@@QEAAPEAGXZ
0x00076c74: ?write_stored_string_tchar@?$output_processor@_WV?$stream_output_adapter@_W@__crt_stdio_output@@V?$positional_parameter_base@_WV?$stream_output_adapter@_W@__crt_stdio_output@@@2@@__crt_stdio_output@@AEAA_N_W@Z
0x00076d54: __guard_dispatch_icall_fptr
0x00076d80: ReadConsoleW
0x00076d9c: ?release@?$__crt_unique_heap_ptr@U__vcrt_ptd@@U__crt_internal_free_policy@@@@QEAAXXZ
0x00076e00: ??$__crt_interlocked_exchange_pointer@UHINSTANCE__@@PEAU1@@@YAPEAUHINSTANCE__@@PEDSEAU0@QEAU0@@Z
0x00076e70: ??$initialize_from_array@$$BY00Q6AXPEB_W00I_K@Z@?$dual_state_global@P6AXPEB_W00I_K@Z@__crt_state_management@@QEAAXAEAY00Q6AXPEB_W00I_K@Z@Z
0x00076f0c: ?write_string_impl@?$output_adapter_common@_WV?$stream_output_adapter@_W@__crt_stdio_output@@@__crt_stdio_output@@IEBAXQEB_WHQEAHAEAV__crt_deferred_errno_cache@@@Z
0x00076fc0: GetStringTypeW
0x00076fe0: _seh_filter_dll
0x00077000: ?detach@?$__crt_unique_heap_ptr@DU__crt_internal_free_policy@@@@QEAAPEADXZ
0x0007705c: ??_C@_03LBGABGKK@Jul@
0x00077080: __acrt_AppPolicyGetProcessTerminationMethodInternal
0x000770c4: atoi
0x000770d8: ?parse_int_from_format_string@?$output_processor@_WV?$stream_output_adapter@_W@__crt_stdio_output@@V?$format_validation_base@_WV?$stream_output_adapter@_W@__crt_stdio_output@@@2@@__crt_stdio_output@@AEAA_NQEAH@Z
0x000771bc: ??1?$c_string_character_source@D@__crt_strtox@@QEAA@XZ
0x00077204: ??_C@_1M@JNOCAHJI@?$AAe?$AAs?$AA?9?$AAE?$AAC@
0x00077240: ?divide@__crt_strtox@@YA_KAEAUbig_integer@1@AEBU21@@Z
0x00077284: ?pArgList@UnDecorator@@0PEAVReplicator@@EA
0x000772c0: ??_C@_08INBOOONO@Saturday@
0x000772ec: ?raw_length@DNameStatusNode@@UEBAHXZ
0x00077320: ?release@?$__crt_unique_heap_ptr@U__acrt_ptd@@U__crt_internal_free_policy@@@@QEAAXXZ
0x00077384: ?get_parameter_type@?$positional_parameter_base@DV?$string_output_adapter@D@__crt_stdio_output@@@__crt_stdio_output@@CA?AW4parameter_type@12@_J@Z
0x00077424: ??_C@_1M@LMDCNDBA@?$AAf?$AAo?$AA?9?$AAf?$AAo@
0x00077460: _wcstoi64_l
0x0007747c: ?getDataIndirectType@UnDecorator@@CA?AVDName@@AEBV2@W4IndirectionKind@@0H@Z
0x000774d8: ??_C@_1M@NOHADPMI@?$AAf?$AAr?$AA?9?$AAc?$AAa@
0x00077514: ?state_case_dot@?$output_processor@_WV?$stream_output_adapter@_W@__crt_stdio_output@@V?$positional_parameter_base@_WV?$stream_output_adapter@_W@__crt_stdio_output@@@2@@__crt_stdio_output@@AEAA_NXZ
0x000775e8: ??$?RD@__crt_public_free_policy@@QEBAXQEBD@Z
0x00077624: ?write_stored_string_tchar@?$output_processor@_WV?$string_output_adapter@_W@__crt_stdio_output@@V?$positional_parameter_base@_WV?$string_output_adapter@_W@__crt_stdio_output@@@2@@__crt_stdio_output@@AEAA_N_W@Z
0x00077704: ??$peek_va_arg@PEAD@__crt_stdio_output@@YAPEADPEAD@Z
0x00077748: _Fenv1
0x00077760: __acrt_lconv
0x0007777c: __ascii_tolower
0x0007779c: ??_C@_15HPFPGODN@?$AAl?$AAv@
0x000777c8: ??$extract_argument_from_va_list@F_J@?$positional_parameter_base@_WV?$string_output_adapter@_W@__crt_stdio_output@@@__crt_stdio_output@@IEAA_NAEA_J@Z
0x0007786c: ?getString@DNameStatusNode@@UEBAPEADPEAD0@Z
0x000778a8: ?type_case_a@?$output_processor@DV?$string_output_adapter@D@__crt_stdio_output@@V?$standard_base@DV?$string_output_adapter@D@__crt_stdio_output@@@2@@__crt_stdio_output@@AEAA_NXZ
0x00077968: ?__crt_interlocked_read_32@@YAHPEDH@Z
0x0007799c: ??$?RU__crt_locale_data@@@__crt_internal_free_policy@@QEBAXQEBU__crt_locale_data@@@Z
0x00077a00: __p__acmdln
0x00077a1c: ?compute_byte_mask@?$__crt_simd_pack_traits@$00@@SAHT__m256i@@@Z
0x00077a6c: __scrt_is_nonwritable_in_current_image
0x00077aa4: ?getTypeEncoding@UnDecorator@@CAHXZ
0x00077ad8: ?data@?$__crt_win32_buffer@DU__crt_win32_buffer_internal_dynamic_resizing@@@@QEAAPEADXZ
0x00077b40: ??0DName@@QEAA@D@Z
0x00077b64: ??Piterator@UWMap4@FH4@@QEBA_NAEBV012@@Z
0x00077b9c: __imp_TerminateProcess
0x00077bc4: ?_CallMemberFunction1@@YAXQEAX00@Z
0x00077bf8: _invalid_parameter_noinfo
0x00077c20: ??_C@_1CE@MGKCNLGN@?$AAf?$AAr?$AAe?$AAn?$AAc?$AAh?$AA?9?$AAl?$AAu?$AAx?$AAe?$AAm?$AAb?$AAo?$AAu@
0x00077c90: ??0iterator@HandlerMap@__FrameHandler3@@QEAA@AEAV12@I@Z
0x00077cd8: ?state_case_type@?$output_processor@_WV?$stream_output_adapter@_W@__crt_stdio_output@@V?$format_validation_base@_WV?$stream_output_adapter@_W@__crt_stdio_output@@@2@@__crt_stdio_output@@AEAA_NXZ
0x00077dac: _i64tow
0x00077dc4: ??0?$__crt_unique_heap_ptr@U__crt_lowio_handle_data@@U__crt_internal_free_policy@@@@QEAA@QEAU__crt_lowio_handle_data@@@Z
0x00077e4c: ??_R0?AVDNameStatusNode@@@8
0x00077e78: _logf_special
0x00077e94: ??_C@_0BB@CDHDDLLP@LCIDToLocaleName@
0x00077ec8: __imp_FindClose
0x00077ee8: ??_R2pairNode@@8
0x00077f08: __imp_MultiByteToWideChar
0x00077f30: ??$?RX@__crt_internal_free_policy@@QEBAXQEBX@Z
0x00077f70: ??_C@_15KPJEDBKD@?$AAk?$AAa@
0x00077f9c: _IsExceptionObjectToBeDestroyed
0x00077fcc: ??_C@_04COOMCNPB@sinh@
0x00077ff4: ??$?R_W@__crt_internal_free_policy@@QEBAXQEB_W@Z
0x00078034: __xp_z
0x0007804c: ?StateFromControlPc@__FrameHandler4@@SAHPEAUFuncInfo4@FH4@@PEAU_xDISPATCHER_CONTEXT@@@Z
0x000780b4: ?get_invalid_value@__crt_hmodule_traits@@SAPEAUHINSTANCE__@@XZ
0x00078104: _CallSettingFrame
0x00078124: _guard_xfg_dispatch_icall_nop
0x00078150: ??_C@_1M@MOBDBLOC@?$AAa?$AAr?$AA?9?$AAl?$AAy@
0x0007818c: ?state_case_precision@?$output_processor@_WV?$string_output_adapter@_W@__crt_stdio_output@@V?$standard_base@_WV?$string_output_adapter@_W@__crt_stdio_output@@@2@@__crt_stdio_output@@AEAA_NXZ
0x0007825c: ?type_case_s@?$output_processor@_WV?$string_output_adapter@_W@__crt_stdio_output@@V?$format_validation_base@_WV?$string_output_adapter@_W@__crt_stdio_output@@@2@@__crt_stdio_output@@AEAA_NXZ
0x0007832c: ??0formatting_buffer@__crt_stdio_output@@QEAA@XZ
0x0007836c: ?get_parameter_type@?$positional_parameter_base@DV?$stream_output_adapter@D@__crt_stdio_output@@@__crt_stdio_output@@CA?AW4parameter_type@12@G@Z
0x0007840c: ??3@YAXPEAX@Z
0x00078428: ??_C@_08LLFFHHDJ@?$GAtypeof?8@
0x00078458: ??_C@_1BO@LKNDOIGD@?$AAs?$AAp?$AAa?$AAn?$AAi?$AAs?$AAh?$AA?9?$AAm?$AAo?$AAd?$AAe?$AAr?$AAn@
0x000784c4: _pgmptr
0x000784dc: __lc_wcstolc
0x000784f8: __crt_debugger_hook
0x0007851c: ?capacity@?$__crt_win32_buffer@_WU__crt_win32_buffer_internal_dynamic_resizing@@@@QEBA_KXZ
0x00078588: ??_C@_04PDIFKINK@acos@
0x000785b0: __acrt_lowio_create_handle_array
0x000785e0: wcscat_s
0x000785f8: ??_C@_1BI@NMFDBHJE@?$AAe?$AAn?$AAg?$AAl?$AAi?$AAs?$AAh?$AA?9?$AAu?$AAs?$AAa@
0x00078654: ?close@__crt_findfile_traits@@SA_NPEAX@Z
0x0007868c: ??$tcsncpy_s@PEADAEB_KAEBQEBDAEB_K@?$__crt_char_traits@D@@SAH$$QEAPEADAEB_KAEBQEBD1@Z
0x000786f0: ?getStateFromIterators@UWMap4@FH4@@SAHAEBViterator@12@H0H0@Z
0x0007873c: __acrt_initialize_fma3
0x00078764: ??_C@_1BC@JGDDFFAM@?$AAF?$AAe?$AAb?$AAr?$AAu?$AAa?$AAr?$AAy@
0x000787b0: ??_C@_1M@IFGBIJO@?$AAl?$AAt?$AA?9?$AAL?$AAT@
0x000787ec: ??_C@_1M@OJONDMDL@?$AAf?$AAr?$AA?9?$AAM?$AAC@
0x00078828: __real@3ff0000000000000
0x00078850: ?state_case_dot@?$output_processor@_WV?$string_output_adapter@_W@__crt_stdio_output@@V?$positional_parameter_base@_WV?$string_output_adapter@_W@__crt_stdio_output@@@2@@__crt_stdio_output@@AEAA_NXZ
0x00078924: __doserrno
0x00078940: ??$extract_argument_from_va_list@F_J@?$positional_parameter_base@DV?$stream_output_adapter@D@__crt_stdio_output@@@__crt_stdio_output@@IEAA_NAEA_J@Z
0x000789e4: __imp_GetConsoleOutputCP
0x00078a0c: __scrt_ucrt_dll_is_in_use
0x00078a34: ??0?$optional@_K@std@@QEAA@XZ
0x00078a60: isleadbyte
0x00078a7c: ??_C@_1M@LDCEFHA@?$AAt?$AAa?$AA?9?$AAi?$AAn@
0x00078ab8: _ismbblead
0x00078ad4: FreeEnvironmentStringsW
0x00078afc: EncodePointer
0x00078b18: ??$__crt_fast_decode_pointer@P6AXXZ@@YAP6AXXZQ6AXXZ@Z
0x00078b5c: ??0?$output_processor@DV?$stream_output_adapter@D@__crt_stdio_output@@V?$format_validation_base@DV?$stream_output_adapter@D@__crt_stdio_output@@@2@@__crt_stdio_output@@QEAA@AEBV?$stream_output_adapter@D@1@_KQEBDQEAU__crt_locale_pointers@@QEAD@Z
0x00078c60: ??_C@_05KNFBNCOH@float@
0x00078c88: ?type_case_c@?$output_processor@DV?$stream_output_adapter@D@__crt_stdio_output@@V?$positional_parameter_base@DV?$stream_output_adapter@D@__crt_stdio_output@@@2@@__crt_stdio_output@@AEAA_NXZ
0x00078d54: ??_C@_02CJNFDJBF@PM@
0x00078d78: ??_C@_1BI@PCKFNJFB@?$AAL?$AAC?$AA_?$AAM?$AAO?$AAN?$AAE?$AAT?$AAA?$AAR?$AAY@
0x00078dd4: __xp_a
0x00078dec: ??$get_module_file_name@$$TAEAY0BAF@_WH@?$__crt_char_traits@_W@@SAK$$QEA$$TAEAY0BAF@_W$$QEAH@Z
0x00078e5c: ?release@?$__crt_unique_heap_ptr@PEADU__crt_internal_free_policy@@@@QEAAXXZ
0x00078eb8: __acrt_thread_detach
0x00078edc: ?CatchTryBlock@__FrameHandler3@@SAPEBU_s_TryBlockMapEntry@@PEBU_s_FuncInfo@@H@Z
0x00078f3c: ??$read_va_arg@H@__crt_stdio_output@@YAHAEAPEAD@Z
0x00078f7c: ??_R0?AVbad_exception@std@@@8
0x00078fa8: ??_R3type_info@@8
0x00078fc8: ??B?$__crt_unique_heap_ptr@U__crt_multibyte_data@@U__crt_internal_free_policy@@@@QEBA_NXZ
0x00079030: ??_C@_0P@HJKNJFNN@?$GAomni?5callsig?8@
0x00079068: ?process@?$output_processor@_WV?$stream_output_adapter@_W@__crt_stdio_output@@V?$standard_base@_WV?$stream_output_adapter@_W@__crt_stdio_output@@@2@@__crt_stdio_output@@QEAAHXZ
0x00079128: ??_C@_05CIHEBHNO@char?5@
0x00079150: ?unget@?$c_string_character_source@D@__crt_strtox@@QEAAXD@Z
0x0007919c: ?large_power_indices@?1??multiply_by_power_of_ten@__crt_strtox@@YA_NAEAUbig_integer@2@I@Z@4QBUunpack_index@?1??12@YA_N0I@Z@B
0x00079228: _wctomb_l
0x00079240: _wtoll
0x00079258: __vcrt_FlsGetValue
0x0007927c: ?get_parameter_type@?$positional_parameter_base@DV?$string_output_adapter@D@__crt_stdio_output@@@__crt_stdio_output@@CA?AW4parameter_type@12@U_CRT_DOUBLE@@@Z
0x00079328: ?release@?$__crt_unique_heap_ptr@GU__crt_internal_free_policy@@@@QEAAXXZ
0x00079380: ?value@?$dual_state_global@PEAPEA_W@__crt_state_management@@QEAAAEAPEAPEA_WXZ
0x000793dc: ??_C@_0L@JMKHOMEK@__fastcall@
0x00079408: ??$set_program_name@PEAD@?$__crt_char_traits@D@@SAX$$QEAPEAD@Z
0x00079458: ?type_case_s@?$output_processor@DV?$stream_output_adapter@D@__crt_stdio_output@@V?$format_validation_base@DV?$stream_output_adapter@D@__crt_stdio_output@@@2@@__crt_stdio_output@@AEAA_NXZ
0x00079524: _handle_nan
0x00079540: ??_C@_15NDDHIMN@?$AAn?$AAl@
0x0007956c: ??1_LocaleUpdate@@QEAA@XZ
0x00079594: ??_C@_1DK@NDHNAHIO@?$AAa?$AAp?$AAi?$AA?9?$AAm?$AAs?$AA?9?$AAw?$AAi?$AAn?$AA?9?$AAc?$AAo?$AAr?$AAe@
0x00079608: __stdio_common_vfwprintf
0x00079630: mbstowcs
0x00079648: __acrt_is_interactive
0x0007966c: ??$?0$0A@@pcharNode@@QEAA@PEBDHU?$StringLifeSelector@$0A@@@@Z
0x000796b8: ?get_parameter_type@?$positional_parameter_base@_WV?$stream_output_adapter@_W@__crt_stdio_output@@@__crt_stdio_output@@CA?AW4parameter_type@12@I@Z
0x0007975c: ?find_next_state@?$output_processor@DV?$string_output_adapter@D@__crt_stdio_output@@V?$positional_parameter_base@DV?$string_output_adapter@D@__crt_stdio_output@@@2@@__crt_stdio_output@@AEBA?AW4state@2@DW432@@Z
0x0007983c: ?get_parameter_type@?$positional_parameter_base@_WV?$stream_output_adapter@_W@__crt_stdio_output@@@__crt_stdio_output@@CA?AW4parameter_type@12@_W@Z
0x000798e0: _strtoll_l
0x000798fc: ?get@?$__crt_unique_heap_ptr@U__acrt_ptd@@U__crt_internal_free_policy@@@@QEBAPEAU__acrt_ptd@@XZ
0x0007996c: ?type_case_n@?$output_processor@DV?$stream_output_adapter@D@__crt_stdio_output@@V?$format_validation_base@DV?$stream_output_adapter@D@__crt_stdio_output@@@2@@__crt_stdio_output@@AEAA_NXZ
0x00079a38: ??$type_case_integer_parse_into_buffer@_K@?$output_processor@_WV?$stream_output_adapter@_W@__crt_stdio_output@@V?$positional_parameter_base@_WV?$stream_output_adapter@_W@__crt_stdio_output@@@2@@__crt_stdio_output@@AEAAX_KI_N@Z
0x00079b2c: __vcrt_uninitialize_locks
0x00079b54: ?allocate@?$__crt_win32_buffer@DU__crt_win32_buffer_no_resizing@@@@QEAAH_K@Z
0x00079bb0: ??_C@_1M@OCJEJODD@?$AAz?$AAh?$AA?9?$AAh?$AAk@
0x00079bec: ?doNoIdentCharCheck@UnDecorator@@SAHXZ
0x00079c24: _iswcntrl_l
0x00079c40: ??0?$output_adapter_data@_WV?$stream_output_adapter@_W@__crt_stdio_output@@@__crt_stdio_output@@IEAA@AEBV?$stream_output_adapter@_W@1@_KQEB_WQEAU__crt_locale_pointers@@QEAD@Z
0x00079d00: ??1?$__crt_win32_buffer@DU__crt_win32_buffer_internal_dynamic_resizing@@@@QEAA@XZ
0x00079d60: ??_C@_1M@LJMAMNPJ@?$AAs?$AAq?$AA?9?$AAA?$AAL@
0x00079d9c: ?get_parameter_type@?$positional_parameter_base@DV?$stream_output_adapter@D@__crt_stdio_output@@@__crt_stdio_output@@CA?AW4parameter_type@12@_K@Z
0x00079e3c: ??YDName@@QEAAAEAV0@PEAV0@@Z
0x00079e68: ?state_case_normal_tchar@?$output_processor@_WV?$stream_output_adapter@_W@__crt_stdio_output@@V?$format_validation_base@_WV?$stream_output_adapter@_W@__crt_stdio_output@@@2@@__crt_stdio_output@@AEAA_N_W@Z
0x00079f44: RtlCaptureContext
0x00079f64: __rtc_taa
0x00079f7c: ?should_format@?$positional_parameter_base@DV?$string_output_adapter@D@__crt_stdio_output@@@__crt_stdio_output@@IEAA_NXZ
0x0007a004: ??$count@_W@formatting_buffer@__crt_stdio_output@@QEBA_KXZ
0x0007a050: ??$extract_argument_from_va_list@G_J@?$positional_parameter_base@DV?$stream_output_adapter@D@__crt_stdio_output@@@__crt_stdio_output@@IEAA_NAEA_J@Z
0x0007a0f4: __GetPlatformExceptionInfo
0x0007a120: ??$tcscpy_s@AEBQEADAEB_KAEBQEAD@?$__crt_char_traits@D@@SAHAEBQEADAEB_K0@Z
0x0007a178: _set_pgmptr
0x0007a194: _strtoumax_l
0x0007a1b0: _mbctype
0x0007a1c8: ??_C@_05JIBOFOHK@?$HLfor?5@
0x0007a1f4: ?write_stored_string_tchar@?$output_processor@DV?$stream_output_adapter@D@__crt_stdio_output@@V?$positional_parameter_base@DV?$stream_output_adapter@D@__crt_stdio_output@@@2@@__crt_stdio_output@@AEAA_ND@Z
0x0007a2d0: ??_C@_1M@GHBGIGDA@?$AAc?$AAh?$AAi?$AAn?$AAa@
0x0007a30c: ??_C@_08EDHMEBNP@December@
0x0007a338: ?state_case_type@?$output_processor@DV?$stream_output_adapter@D@__crt_stdio_output@@V?$format_validation_base@DV?$stream_output_adapter@D@__crt_stdio_output@@@2@@__crt_stdio_output@@AEAA_NXZ
0x0007a408: ??$extract_argument_from_va_list@PEAUansi_string@?1??type_case_Z@?$output_processor@_WV?$string_output_adapter@_W@__crt_stdio_output@@V?$standard_base@_WV?$string_output_adapter@_W@__crt_stdio_output@@@2@@__crt_stdio_output@@AEAA_NXZ@PEAU1?1??234@AEAA_NXZ@@?$standard_base@_WV?$string_output_adapter@_W@__crt_stdio_output@@@__crt_stdio_output@@IEAA_NAEAPEAUansi_string@?1??type_case_Z@?$output_processor@_WV?$string_output_adapter@_W@__crt_stdio_output@@V?$standard_base@_WV?$string_output_adapter@_W@__crt_stdio_output@@@2@@1@AEAA_NXZ@@Z
0x0007a634: ??_C@_08GHMPAG@__pascal@
0x0007a65c: ??_C@_1M@OONGHFHE@?$AAe?$AAs?$AA?9?$AAA?$AAR@
0x0007a698: ??0?$output_adapter_data@_WV?$string_output_adapter@_W@__crt_stdio_output@@@__crt_stdio_output@@IEAA@AEBV?$string_output_adapter@_W@1@_KQEB_WQEAU__crt_locale_pointers@@QEAD@Z
0x0007a758: ??_C@_1M@FKFFEDDN@?$AAe?$AAt?$AA?9?$AAE?$AAE@
0x0007a794: GetProcAddress
0x0007a7b4: ReadNoFence64
0x0007a7d0: ??_C@_02OHHJMEON@?8?8@
0x0007a7f8: ?state_case_percent@?$output_processor@DV?$stream_output_adapter@D@__crt_stdio_output@@V?$format_validation_base@DV?$stream_output_adapter@D@__crt_stdio_output@@@2@@__crt_stdio_output@@AEAA_NXZ
0x0007a8c8: _get_doserrno
0x0007a8e4: ?has_flag@?$output_processor@_WV?$stream_output_adapter@_W@__crt_stdio_output@@V?$format_validation_base@_WV?$stream_output_adapter@_W@__crt_stdio_output@@@2@@__crt_stdio_output@@AEBA_NI@Z
0x0007a9b0: __scrt_dllmain_crt_thread_attach
0x0007a9e0: _ismbblead_l
0x0007a9fc: ??_R1A@?0A@EA@pDNameNode@@8
0x0007aa28: ?type_case_c_tchar@?$output_processor@DV?$string_output_adapter@D@__crt_stdio_output@@V?$standard_base@DV?$string_output_adapter@D@__crt_stdio_output@@@2@@__crt_stdio_output@@AEAA_ND@Z
0x0007aaf0: ??_C@_1M@NGJJLCGI@?$AAk?$AAy?$AA?9?$AAK?$AAG@
0x0007ab2c: ??$__acrt_fenv_translate_bit@W4__acrt_fenv_abstract_control@@W4__acrt_fenv_machine_sse_control@@@@YA?AW4__acrt_fenv_abstract_control@@W4__acrt_fenv_machine_sse_control@@0W40@1@Z
0x0007abec: ?type_case_s_compute_narrow_string_length@?$output_processor@DV?$stream_output_adapter@D@__crt_stdio_output@@V?$positional_parameter_base@DV?$stream_output_adapter@D@__crt_stdio_output@@@2@@__crt_stdio_output@@AEBAHHD@Z
0x0007acd8: ??4DName@@QEAAAEAV0@AEBUStringLiteral@@@Z
0x0007ad10: ?state_case_percent@?$output_processor@DV?$string_output_adapter@D@__crt_stdio_output@@V?$positional_parameter_base@DV?$string_output_adapter@D@__crt_stdio_output@@@2@@__crt_stdio_output@@AEAA_NXZ
0x0007ade4: ?ExecutionInCatch@__FrameHandler4@@SA_NPEAU_xDISPATCHER_CONTEXT@@PEAUFuncInfo4@FH4@@@Z
0x0007ae4c: ?state_case_width@?$output_processor@_WV?$string_output_adapter@_W@__crt_stdio_output@@V?$positional_parameter_base@_WV?$string_output_adapter@_W@__crt_stdio_output@@@2@@__crt_stdio_output@@AEAA_NXZ
0x0007af24: ??_C@_1M@BHDLHFAF@?$AAe?$AAn?$AA?9?$AAZ?$AAA@
0x0007af60: ??_C@_03DLDNIBIK@?$CFlf@
0x0007af88: ??Diterator@HandlerMap@__FrameHandler3@@QEAA?BU_s_HandlerType@@XZ
0x0007afd8: ?validate@?$c_string_character_source@D@__crt_strtox@@QEBA_NXZ
0x0007b028: ?type_case_a@?$output_processor@_WV?$stream_output_adapter@_W@__crt_stdio_output@@V?$positional_parameter_base@_WV?$stream_output_adapter@_W@__crt_stdio_output@@@2@@__crt_stdio_output@@AEAA_NXZ
0x0007b0f8: RtlVirtualUnwind
0x0007b118: ??_C@_1M@MLKIBJOJ@?$AAe?$AAn?$AA?9?$AAP?$AAH@
0x0007b154: ??_C@_1M@OEPGHFNH@?$AAa?$AAr?$AA?9?$AAq?$AAa@
0x0007b190: _query_app_type
0x0007b1b0: ??_C@_0BN@DEGPLNFK@?$GAvector?5deleting?5destructor?8@
0x0007b1f8: __scrt_native_dllmain_reason
0x0007b224: ??1__crt_scoped_get_last_error_reset@@QEAA@XZ
0x0007b260: ?end@TryBlockMap4@FH4@@QEAA?AViterator@12@XZ
0x0007b29c: ?set_to_nullptr@?$__crt_win32_buffer@DU__crt_win32_buffer_no_resizing@@@@QEAAXXZ
0x0007b2fc: _malloc_base
0x0007b318: ??$__crt_fast_encode_pointer@PEAP6AXXZ@@YAPEAP6AXXZQEAP6AXXZ@Z
0x0007b368: _get_exp
0x0007b380: ?__crt_transform_string@@YA_KIQEB_WQEAD_K@Z
0x0007b3bc: ??0?$output_processor@_WV?$stream_output_adapter@_W@__crt_stdio_output@@V?$format_validation_base@_WV?$stream_output_adapter@_W@__crt_stdio_output@@@2@@__crt_stdio_output@@QEAA@AEBV?$stream_output_adapter@_W@1@_KQEB_WQEAU__crt_locale_pointers@@QEAD@Z
0x0007b4c8: ??$extract_argument_from_va_list@_J_J@?$standard_base@DV?$string_output_adapter@D@__crt_stdio_output@@@__crt_stdio_output@@IEAA_NAEA_J@Z
0x0007b560: ?incrementToSentinel@iterator@TryBlockMap4@FH4@@QEAAXXZ
0x0007b5a8: ??$tcsncpy_s@AEAPEA_W_KAEAPEA_WAEB_K@?$__crt_char_traits@_W@@SAHAEAPEA_W$$QEA_K0AEB_K@Z
0x0007b610: ??_C@_03NAKIGLHK@_y1@
0x0007b634: ??_R1A@?0A@EA@DNameStatusNode@@8
0x0007b664: ??1?$__crt_unique_heap_ptr@_WU__crt_internal_free_policy@@@@QEAA@XZ
0x0007b6b8: __imp_UnhandledExceptionFilter
0x0007b6e8: ?state_case_type@?$output_processor@DV?$string_output_adapter@D@__crt_stdio_output@@V?$standard_base@DV?$string_output_adapter@D@__crt_stdio_output@@@2@@__crt_stdio_output@@AEAA_NXZ
0x0007b7ac: ??$read_va_arg@PEAUansi_string@?1??type_case_Z@?$output_processor@_WV?$string_output_adapter@_W@__crt_stdio_output@@V?$format_validation_base@_WV?$string_output_adapter@_W@__crt_stdio_output@@@2@@__crt_stdio_output@@AEAA_NXZ@@__crt_stdio_output@@YAPEAUansi_string@?1??type_case_Z@?$output_processor@_WV?$string_output_adapter@_W@__crt_stdio_output@@V?$format_validation_base@_WV?$string_output_adapter@_W@__crt_stdio_output@@@2@@0@AEAA_NXZ@AEAPEAD@Z
0x0007b97c: ?advance_to_next_pass@?$positional_parameter_base@_WV?$string_output_adapter@_W@__crt_stdio_output@@@__crt_stdio_output@@IEAA_NXZ
0x0007ba0c: _fcloseall
0x0007ba28: ??_C@_1O@DFKOMPG@?$AAs?$AAm?$AAa?$AA?9?$AAn?$AAo@
0x0007ba68: __NLG_Return2
0x0007ba84: ??_C@_1M@LNFOCMOB@?$AAs?$AAe?$AA?9?$AAF?$AAI@
0x0007bac0: __acrt_atexit_table
0x0007bae4: __acrt_get_developer_information_policy
0x0007bb1c: __acrt_uninitialize_locale
0x0007bb48: ?set_flag@?$output_processor@DV?$string_output_adapter@D@__crt_stdio_output@@V?$positional_parameter_base@DV?$string_output_adapter@D@__crt_stdio_output@@@2@@__crt_stdio_output@@AEAAXI@Z
0x0007bc14: TlsAlloc
0x0007bc2c: ?doEllipsis@UnDecorator@@SAHXZ
0x0007bc5c: ?doAccessSpecifiers@UnDecorator@@SAHXZ
0x0007bc94: __acrt_signal_action_table_size
0x0007bcc4: __acrt_multibyte_initializer
0x0007bcf0: SetConsoleCtrlHandler
0x0007bd14: ??_C@_1BG@NDGMJIMJ@?$AAu?$AAz?$AA?9?$AAU?$AAZ?$AA?9?$AAL?$AAa?$AAt?$AAn@
0x0007bd6c: ??0DName@@QEAA@_K@Z
0x0007bd90: ??_C@_05PHHOCPM@1?$CDIND@
0x0007bdb8: ??_C@_1M@BDNIPEND@?$AAe?$AAs?$AA?9?$AAC?$AAL@
0x0007bdf4: ?update_field_width@?$positional_parameter_base@_WV?$stream_output_adapter@_W@__crt_stdio_output@@@__crt_stdio_output@@IEAA_NXZ
0x0007be84: ??_C@_1M@ELCKCCJJ@?$AAm?$AAi?$AA?9?$AAn?$AAz@
0x0007bec0: ?detach@?$__crt_unique_heap_ptr@JU__crt_internal_free_policy@@@@QEAAPEAJXZ
0x0007bf1c: __acrt_getptd
0x0007bf38: ?validate_and_update_state_at_end_of_format_string@?$positional_parameter_base@_WV?$string_output_adapter@_W@__crt_stdio_output@@@__crt_stdio_output@@IEAA_NXZ
0x0007bfe8: ??1?$positional_parameter_base@DV?$string_output_adapter@D@__crt_stdio_output@@@__crt_stdio_output@@QEAA@XZ
0x0007c064: strchr
0x0007c07c: TerminateProcess
0x0007c09c: ??_C@_1O@OJDJGAJC@?$AAs?$AAm?$AAs?$AA?9?$AAf?$AAi@
0x0007c0e0: __imp_LeaveCriticalSection
0x0007c10c: ?type_case_s@?$output_processor@DV?$stream_output_adapter@D@__crt_stdio_output@@V?$standard_base@DV?$stream_output_adapter@D@__crt_stdio_output@@@2@@__crt_stdio_output@@AEAA_NXZ
0x0007c1cc: ?isPtrRef@DName@@QEBAHXZ
0x0007c1f4: ??_C@_02HCKGKOFO@?$CI?$CJ@
0x0007c220: ?wide_null_string@?$output_processor@DV?$string_output_adapter@D@__crt_stdio_output@@V?$standard_base@DV?$string_output_adapter@D@__crt_stdio_output@@@2@@__crt_stdio_output@@CAPEA_WXZ
0x0007c2e8: ?unset_flag@?$output_processor@DV?$stream_output_adapter@D@__crt_stdio_output@@V?$format_validation_base@DV?$stream_output_adapter@D@__crt_stdio_output@@@2@@__crt_stdio_output@@AEAAXI@Z
0x0007c3b0: ??_C@_1M@CNKPNOEE@?$AAd?$AAe?$AA?9?$AAC?$AAH@
0x0007c3ec: __memset_fast_string_threshold
0x0007c41c: ??_C@_1M@KDJDKMDD@?$AAn?$AAb?$AA?9?$AAn?$AAo@
0x0007c458: IsProcessorFeaturePresent
0x0007c480: ??_C@_1M@CBOOLAPA@?$AAm?$AAk?$AA?9?$AAm?$AAk@
0x0007c4bc: ??_C@_01MNNFJEPP@?$DM@
0x0007c4e4: ?get_parameter_type@?$positional_parameter_base@DV?$stream_output_adapter@D@__crt_stdio_output@@@__crt_stdio_output@@CA?AW4parameter_type@12@_J@Z
0x0007c584: ?composeDeclaration@UnDecorator@@CA?AVDName@@AEBV2@@Z
0x0007c5c8: __scrt_initialize_default_local_stdio_options
0x0007c604: ??_R4pDNameNode@@6B@
0x0007c628: ??$tcspbrk@AEAPEADAEAY02$$CBD@?$__crt_char_traits@D@@SAPEADAEAPEADAEAY02$$CBD@Z
0x0007c688: ReadPointerNoFence
0x0007c6ac: ??$doPchar@$01@DName@@AEAAXPEBDH@Z
0x0007c6e0: ??_C@_1M@JHGLJMGJ@?$AAa?$AAr?$AA?9?$AAD?$AAZ@
0x0007c71c: ??$__crt_interlocked_read_pointer@$$CBD@@YAPEBDPEDSEBD@Z
0x0007c764: _ultoa_s
0x0007c77c: ??$parse_integer_from_string@_JD$$T@__crt_strtox@@YA_JQEBD$$THQEAU__crt_locale_pointers@@@Z
0x0007c7e8: ??_C@_1M@PBIEACPO@?$AAm?$AAr?$AA?9?$AAI?$AAN@
0x0007c824: _is_c_termination_complete
0x0007c850: ??_R3bad_exception@std@@8
0x0007c878: ??$extract_argument_from_va_list@I_J@?$positional_parameter_base@DV?$stream_output_adapter@D@__crt_stdio_output@@@__crt_stdio_output@@IEAA_NAEA_J@Z
0x0007c91c: __scrt_is_user_matherr_present
0x0007c94c: _isctype_l
0x0007c968: ??$read_va_arg@PEAUansi_string@?1??type_case_Z@?$output_processor@DV?$stream_output_adapter@D@__crt_stdio_output@@V?$format_validation_base@DV?$stream_output_adapter@D@__crt_stdio_output@@@2@@__crt_stdio_output@@AEAA_NXZ@@__crt_stdio_output@@YAPEAUansi_string@?1??type_case_Z@?$output_processor@DV?$stream_output_adapter@D@__crt_stdio_output@@V?$format_validation_base@DV?$stream_output_adapter@D@__crt_stdio_output@@@2@@0@AEAA_NXZ@AEAPEAD@Z
0x0007cb30: ??Miterator@TryBlockMap4@FH4@@QEBA_NAEBV012@@Z
0x0007cb70: ?set_to_nullptr@?$__crt_win32_buffer@_WU__crt_win32_buffer_internal_dynamic_resizing@@@@QEAAXXZ
0x0007cbe0: ?type_case_s_compute_narrow_string_length@?$output_processor@DV?$stream_output_adapter@D@__crt_stdio_output@@V?$standard_base@DV?$stream_output_adapter@D@__crt_stdio_output@@@2@@__crt_stdio_output@@AEBAHHD@Z
0x0007ccc0: _itow
0x0007ccd4: ??_R3charNode@@8
0x0007ccf4: ??HDName@@QEBA?AV0@AEBUStringLiteral@@@Z
0x0007cd2c: atoll
0x0007cd40: ?setIsUDC@DName@@QEAAXXZ
0x0007cd68: _SetWinRTOutOfMemoryExceptionCallback
0x0007cd9c: ??1?$__crt_unique_heap_ptr@U__crt_multibyte_data@@U__crt_internal_free_policy@@@@QEAA@XZ
0x0007ce04: QueryPerformanceCounter
0x0007ce2c: ??1?$__crt_unique_heap_ptr@U__acrt_ptd@@U__crt_internal_free_policy@@@@QEAA@XZ
0x0007ce8c: ?disableFlags@UnDecorator@@0KA
0x0007cebc: _ultow_s
0x0007ced4: ??_C@_1M@JHPMKJIE@?$AAa?$AAr?$AA?9?$AAo?$AAm@
0x0007cf10: ?validate@?$string_output_adapter@_W@__crt_stdio_output@@QEBA_NXZ
0x0007cf60: __std_type_info_compare
0x0007cf88: ??_C@_02DPKJAMEF@?$CFd@
0x0007cfb0: ??$peek_va_arg@PEAUansi_string@?1??type_case_Z@?$output_processor@_WV?$string_output_adapter@_W@__crt_stdio_output@@V?$positional_parameter_base@_WV?$string_output_adapter@_W@__crt_stdio_output@@@2@@__crt_stdio_output@@AEAA_NXZ@@__crt_stdio_output@@YAPEAUansi_string@?1??type_case_Z@?$output_processor@_WV?$string_output_adapter@_W@__crt_stdio_output@@V?$positional_parameter_base@_WV?$string_output_adapter@_W@__crt_stdio_output@@@2@@0@AEAA_NXZ@PEAD@Z
0x0007d184: ??0?$__crt_unique_heap_ptr@PEA_WU__crt_internal_free_policy@@@@QEAA@QEAPEA_W@Z
0x0007d1e4: _close
0x0007d1fc: ??_C@_1M@JLANABKE@?$AAa?$AAr?$AA?9?$AAS?$AAY@
0x0007d238: _ltoa
0x0007d24c: ?getStorageConvention@UnDecorator@@CA?AVDName@@XZ
0x0007d28c: ?state_case_size@?$output_processor@DV?$stream_output_adapter@D@__crt_stdio_output@@V?$format_validation_base@DV?$stream_output_adapter@D@__crt_stdio_output@@@2@@__crt_stdio_output@@AEAA_NXZ
0x0007d35c: ??_R1A@?0A@EA@pairNode@@8
0x0007d384: __scrt_dllmain_uninitialize_critical
0x0007d3b8: ?type_case_c@?$output_processor@DV?$string_output_adapter@D@__crt_stdio_output@@V?$positional_parameter_base@DV?$string_output_adapter@D@__crt_stdio_output@@@2@@__crt_stdio_output@@AEAA_NXZ
0x0007d484: ?unget@?$c_string_character_source@_W@__crt_strtox@@QEAAX_W@Z
0x0007d4d0: ??Eiterator@TryBlockMap4@FH4@@QEAAAEAV012@XZ
0x0007d50c: ??_C@_1M@MILPAJJC@?$AAh?$AAy?$AA?9?$AAa?$AAm@
0x0007d548: ?type_case_s_compute_narrow_string_length@?$output_processor@DV?$string_output_adapter@D@__crt_stdio_output@@V?$format_validation_base@DV?$string_output_adapter@D@__crt_stdio_output@@@2@@__crt_stdio_output@@AEBAHHD@Z
0x0007d630: ?type_case_a@?$output_processor@_WV?$string_output_adapter@_W@__crt_stdio_output@@V?$positional_parameter_base@_WV?$string_output_adapter@_W@__crt_stdio_output@@@2@@__crt_stdio_output@@AEAA_NXZ
0x0007d700: ?wide_null_string@?$output_processor@DV?$string_output_adapter@D@__crt_stdio_output@@V?$positional_parameter_base@DV?$string_output_adapter@D@__crt_stdio_output@@@2@@__crt_stdio_output@@CAPEA_WXZ
0x0007d7d4: ??_C@_1CA@GIAOLHJD@?$AAs?$AAp?$AAa?$AAn?$AAi?$AAs?$AAh?$AA?9?$AAb?$AAo?$AAl?$AAi?$AAv?$AAi?$AAa@
0x0007d844: ??_C@_17FFBJICPL@?$AAs?$AAy?$AAr@
0x0007d874: ??$?RE@__crt_internal_free_policy@@QEBAXQEBE@Z
0x0007d8b4: ?type_case_Z@?$output_processor@_WV?$string_output_adapter@_W@__crt_stdio_output@@V?$format_validation_base@_WV?$string_output_adapter@_W@__crt_stdio_output@@@2@@__crt_stdio_output@@AEAA_NXZ
0x0007d984: __acrt_locale_free_time
0x0007d9ac: ??$extract_argument_from_va_list@PEADPEAD@?$positional_parameter_base@_WV?$stream_output_adapter@_W@__crt_stdio_output@@@__crt_stdio_output@@IEAA_NAEAPEAD@Z
0x0007da58: ??$__crt_fast_encode_pointer@P6AH_K@Z@@YAP6AH_K@ZQ6AH0@Z@Z
0x0007daa4: ??_C@_1M@FGBKKIPG@?$AAm?$AAr?$AA?9?$AAi?$AAn@
0x0007dae0: ??_C@_0P@MIGLKIOC@CorExitProcess@
0x0007db10: ??_C@_1O@IMNBEMCI@?$AAs?$AAm?$AAj?$AA?9?$AAS?$AAE@
0x0007db54: ??_C@_1O@EBKIFIGN@?$AAz?$AAh?$AA?9?$AAc?$AAh?$AAs@
0x0007db98: ??$extract_argument_from_va_list@U_CRT_DOUBLE@@U1@@?$positional_parameter_base@_WV?$stream_output_adapter@_W@__crt_stdio_output@@@__crt_stdio_output@@IEAA_NAEAU_CRT_DOUBLE@@@Z
0x0007dc58: ??$?RU__acrt_ptd@@@__crt_internal_free_policy@@QEBAXQEBU__acrt_ptd@@@Z
0x0007dcb0: ??_C@_1M@BBPHKFPJ@?$AAh?$AAi?$AA?9?$AAi?$AAn@
0x0007dcec: ?size@?$__crt_win32_buffer@DU__crt_win32_buffer_no_resizing@@@@QEBA_KXZ
0x0007dd44: ?type_case_Z@?$output_processor@DV?$string_output_adapter@D@__crt_stdio_output@@V?$positional_parameter_base@DV?$string_output_adapter@D@__crt_stdio_output@@@2@@__crt_stdio_output@@AEAA_NXZ
0x0007de10: ??_C@_15GLKMLLHM@?$AAh?$AAr@
0x0007de3c: __vcrt_InitializeCriticalSectionEx
0x0007de70: ??_C@_07FPCDHGMM@?5delete@
0x0007de9c: ??$extract_argument_from_va_list@E_J@?$standard_base@_WV?$stream_output_adapter@_W@__crt_stdio_output@@@__crt_stdio_output@@IEAA_NAEA_J@Z
0x0007df34: _get_thread_local_invalid_parameter_handler
0x0007df70: ??_C@_1BI@GHLEJDPK@?$AAs?$AAo?$AAu?$AAt?$AAh?$AA?9?$AAk?$AAo?$AAr?$AAe?$AAa@
0x0007dfcc: ??$extract_argument_from_va_list@U_CRT_DOUBLE@@U1@@?$positional_parameter_base@DV?$string_output_adapter@D@__crt_stdio_output@@@__crt_stdio_output@@IEAA_NAEAU_CRT_DOUBLE@@@Z
0x0007e088: GetStartupInfoW
0x0007e0a8: ??_C@_1M@BNOEMJLF@?$AAe?$AAs?$AA?9?$AAG?$AAT@
0x0007e0e4: ?state_case_precision@?$output_processor@DV?$stream_output_adapter@D@__crt_stdio_output@@V?$format_validation_base@DV?$stream_output_adapter@D@__crt_stdio_output@@@2@@__crt_stdio_output@@AEAA_NXZ
0x0007e1b8: ??_C@_1M@EKPGLDNI@?$AAe?$AAn?$AA?9?$AAT?$AAT@
0x0007e1f4: ?validate_and_update_state_at_end_of_format_string@?$format_validation_base@DV?$string_output_adapter@D@__crt_stdio_output@@@__crt_stdio_output@@IEBA_NXZ
0x0007e29c: ?SetUnwindTryBlock@__FrameHandler3@@SAXPEA_KPEAU_xDISPATCHER_CONTEXT@@PEBU_s_FuncInfo@@H@Z
0x0007e308: ??$__crt_fast_encode_pointer@P6AXPEB_W00I_K@Z@@YAP6AXPEB_W00I_K@ZQ6AX000I1@Z@Z
0x0007e368: ??_C@_1M@BOCFIGEP@?$AAp?$AAt?$AA?9?$AAB?$AAR@
0x0007e3a4: __dcrt_uninitialize_environments_nolock
0x0007e3dc: ?type_case_integer@?$output_processor@DV?$string_output_adapter@D@__crt_stdio_output@@V?$standard_base@DV?$string_output_adapter@D@__crt_stdio_output@@@2@@__crt_stdio_output@@AEAA_NI_N@Z
0x0007e4a8: __acrt_stdio_flush_and_write_wide_nolock
0x0007e4e0: __acrt_stdio_end_temporary_buffering_nolock
0x0007e51c: ??$extract_argument_from_va_list@PEAUansi_string@?1??type_case_Z@?$output_processor@DV?$string_output_adapter@D@__crt_stdio_output@@V?$positional_parameter_base@DV?$string_output_adapter@D@__crt_stdio_output@@@2@@__crt_stdio_output@@AEAA_NXZ@PEAU1?1??234@AEAA_NXZ@@?$positional_parameter_base@DV?$string_output_adapter@D@__crt_stdio_output@@@__crt_stdio_output@@IEAA_NAEAPEAUansi_string@?1??type_case_Z@?$output_processor@DV?$string_output_adapter@D@__crt_stdio_output@@V?$positional_parameter_base@DV?$string_output_adapter@D@__crt_stdio_output@@@2@@1@AEAA_NXZ@@Z
0x0007e760: ?get@?$__crt_unique_heap_ptr@_WU__crt_internal_free_policy@@@@QEBAPEA_WXZ
0x0007e7b8: __acrt_fenv_get_control
0x0007e7e0: ?is_valid@?$__crt_unique_heap_ptr@DU__crt_internal_free_policy@@@@QEBA_NXZ
0x0007e83c: ??_C@_03JGHBODFD@pow@
0x0007e860: _initterm
0x0007e878: ??_C@_1O@BHHPIGDN@?$AAq?$AAu?$AAz?$AA?9?$AAe?$AAc@
0x0007e8bc: __acrt_rg_language_count
0x0007e8e4: ??$is_string_specifier@D@?$positional_parameter_base@DV?$stream_output_adapter@D@__crt_stdio_output@@@__crt_stdio_output@@CA_ND@Z
0x0007e974: __p___argv
0x0007e990: ??_C@_1M@LEPJNLFD@?$AAn?$AAs?$AA?9?$AAZ?$AAA@
0x0007e9cc: __acrt_locale_release_lc_time_reference
0x0007ea04: ??_C@_1M@KBMCINPM@?$AAh?$AAe?$AA?9?$AAi?$AAl@
0x0007ea40: ?narrow_null_string@?$output_processor@DV?$stream_output_adapter@D@__crt_stdio_output@@V?$positional_parameter_base@DV?$stream_output_adapter@D@__crt_stdio_output@@@2@@__crt_stdio_output@@CAPEADXZ
0x0007eb14: ?__crt_transform_string@@YA_KIQEBDQEA_W_K@Z
0x0007eb50: ??_C@_05CEJMAHNP@ldexp@
0x0007eb78: __acrt_free_locale
0x0007eb9c: ?__crt_fast_encode_pointer@@YA?AU__crt_fast_encoded_nullptr_t@@$$T@Z
0x0007ebf0: ??$parse_integer_from_string@_J_WPEAPEA_W@__crt_strtox@@YA_JQEB_WQEAPEA_WHQEAU__crt_locale_pointers@@@Z
0x0007ec68: ?get@__crt_deferred_errno_cache@@QEAAAEAHXZ
0x0007eca4: ??_C@_1BG@CMBHIPBE@?$AAs?$AAr?$AA?9?$AAB?$AAA?$AA?9?$AAC?$AAy?$AAr?$AAl@
0x0007ecfc: ??_C@_1M@KDHIHAEC@?$AAf?$AAr?$AA?9?$AAc?$AAh@
0x0007ed38: ??_C@_07ICFHOGAF@__int16@
0x0007ed60: ??0Block@_HeapManager@@QEAA@XZ
0x0007ed90: __GSHandlerCheck
0x0007edb0: __acrt_GetUserDefaultLocaleName
0x0007ede0: __acrt_AreFileApisANSI
0x0007ee08: ?is_valid@?$__crt_unique_heap_ptr@PEA_WU__crt_internal_free_policy@@@@QEBA_NXZ
0x0007ee68: ?getGuardNumber@UnDecorator@@CA?AVDName@@XZ
0x0007eea4: ??B?$optional@_K@std@@QEBA_NXZ
0x0007eed4: ??_R0?AVpDNameNode@@@8
0x0007eefc: ??0?$c_string_character_source@D@__crt_strtox@@QEAA@QEBDQEAPEBD@Z
0x0007ef4c: ?type_case_u@?$output_processor@DV?$stream_output_adapter@D@__crt_stdio_output@@V?$format_validation_base@DV?$stream_output_adapter@D@__crt_stdio_output@@@2@@__crt_stdio_output@@AEAA_NXZ
0x0007f018: ??$tcsncpy_s@PEA_W_KAEBQEB_WAEB_K@?$__crt_char_traits@_W@@SAH$$QEAPEA_W$$QEA_KAEBQEB_WAEB_K@Z
0x0007f084: ??_C@_1M@KPMILCJG@?$AAl?$AAt?$AA?9?$AAl?$AAt@
0x0007f0c0: ?update_field_width@?$standard_base@DV?$stream_output_adapter@D@__crt_stdio_output@@@__crt_stdio_output@@IEAA_NXZ
0x0007f140: __AbsoluteZero
0x0007f160: ?__acrt_fp_classify@@YA?AW4__acrt_fp_class@@AEBN@Z
0x0007f1a4: ?state_case_flag@?$output_processor@DV?$stream_output_adapter@D@__crt_stdio_output@@V?$standard_base@DV?$stream_output_adapter@D@__crt_stdio_output@@@2@@__crt_stdio_output@@AEAA_NXZ
0x0007f268: ?has_flag@?$output_processor@DV?$stream_output_adapter@D@__crt_stdio_output@@V?$format_validation_base@DV?$stream_output_adapter@D@__crt_stdio_output@@@2@@__crt_stdio_output@@AEBA_NI@Z
0x0007f330: ?state_case_normal_common@?$output_processor@_WV?$string_output_adapter@_W@__crt_stdio_output@@V?$standard_base@_WV?$string_output_adapter@_W@__crt_stdio_output@@@2@@__crt_stdio_output@@AEAA_NXZ
0x0007f404: __acrt_initialize_signal_handlers
0x0007f434: __imp_RtlUnwind
0x0007f454: _MarkAllocaS
0x0007f470: ??_C@_1M@GHKGFEDF@?$AAi?$AAt?$AA?9?$AAi?$AAt@
0x0007f4ac: __imp_SetUnhandledExceptionFilter
0x0007f4dc: ??_R2pDNameNode@@8
0x0007f500: ??_C@_1M@IMGKELGA@?$AAd?$AAa?$AA?9?$AAd?$AAk@
0x0007f53c: ??_C@_15NFFGKGLG@?$AAl?$AAt@
0x0007f568: ??_Gbad_exception@std@@UEAAPEAXI@Z
0x0007f59c: ??_C@_0N@DLIEFKNA@cointerface?5@
0x0007f5cc: ??$extract_argument_from_va_list@PEADPEAD@?$standard_base@DV?$string_output_adapter@D@__crt_stdio_output@@@__crt_stdio_output@@IEAA_NAEAPEAD@Z
0x0007f66c: ??$__crt_fast_encode_pointer@P6AXXZ@@YAP6AXXZQ6AXXZ@Z
0x0007f6b0: ?get@?$__crt_unique_heap_ptr@U__crt_lowio_handle_data@@U__crt_internal_free_policy@@@@QEBAPEAU__crt_lowio_handle_data@@XZ
0x0007f738: ??_C@_15BDAKCCHN@?$AAf?$AAa@
0x0007f764: ??_C@_1M@PBNONODE@?$AAf?$AAa?$AA?9?$AAi?$AAr@
0x0007f7a0: ?configure_argv@__scrt_narrow_argv_policy@@SAHXZ
0x0007f7e0: ?state_case_percent@?$output_processor@_WV?$string_output_adapter@_W@__crt_stdio_output@@V?$positional_parameter_base@_WV?$string_output_adapter@_W@__crt_stdio_output@@@2@@__crt_stdio_output@@AEAA_NXZ
0x0007f8b8: ??_C@_1M@GIECOABL@?$AAa?$AAr?$AA?9?$AAa?$AAe@
0x0007f8f4: __acrt_update_thread_locale_data
0x0007f924: __acrt_FlsGetValue
0x0007f948: ?getThisType@UnDecorator@@CA?AVDName@@XZ
0x0007f980: ??$extract_argument_from_va_list@E_J@?$standard_base@DV?$stream_output_adapter@D@__crt_stdio_output@@@__crt_stdio_output@@IEAA_NAEA_J@Z
0x0007fa18: ??_C@_1CC@OOJPJNEJ@?$AAe?$AAn?$AAg?$AAl?$AAi?$AAs?$AAh?$AA?9?$AAa?$AAm?$AAe?$AAr?$AAi?$AAc?$AAa@
0x0007fa88: ??_C@_02FGJGFEAB@?$CG?$DN@
0x0007fab4: ceil
0x0007fac8: ??$type_case_integer_parse_into_buffer@I@?$output_processor@DV?$stream_output_adapter@D@__crt_stdio_output@@V?$standard_base@DV?$stream_output_adapter@D@__crt_stdio_output@@@2@@__crt_stdio_output@@AEAAXII_N@Z
0x0007fba8: __scrt_dllmain_uninitialize_c
0x0007fbd4: ??Diterator@TryBlockMap@__FrameHandler3@@QEAA?BU_s_TryBlockMapEntry@@XZ
0x0007fc2c: exit
0x0007fc40: ??_C@_05LJGMCFOG@enum?5@
0x0007fc68: ??_C@_1M@KFEHEPAC@?$AAt?$AAe?$AA?9?$AAI?$AAN@
0x0007fca4: _isatty
0x0007fcbc: _frnd
0x0007fcd0: _vsnprintf_l
0x0007fcec: ??Diterator@HandlerMap4@FH4@@QEAA?AUHandlerType4@2@XZ
0x0007fd30: __rglangidNotDefault
0x0007fd54: ??_C@_1BI@IOLFEEM@?$AAe?$AAn?$AAg?$AAl?$AAi?$AAs?$AAh?$AA?9?$AAa?$AAu?$AAs@
0x0007fdb0: __acrt_thread_attach
0x0007fdd4: _strtoull_l
0x0007fdf0: ??_C@_1BG@KODPNHE@?$AAs?$AAr?$AA?9?$AAs?$AAp?$AA?9?$AAc?$AAy?$AAr?$AAl@
0x0007fe48: _itoa
0x0007fe5c: ??_C@_1CO@EAEJAADC@?$AA?$DM?$AAp?$AAr?$AAo?$AAg?$AAr?$AAa?$AAm?$AA?5?$AAn?$AAa?$AAm?$AAe?$AA?5?$AAu@
0x0007fed0: __favor
0x0007fee8: ?GetHandlerSearchState@__FrameHandler3@@SAHPEA_KPEAU_xDISPATCHER_CONTEXT@@PEBU_s_FuncInfo@@@Z
0x0007ff54: ??$__crt_fast_decode_pointer@P6AHPEA_WK_J@Z@@YAP6AHPEA_WK_J@ZQ6AH0K1@Z@Z
0x0007ffac: ?getString@pcharNode@@UEBAPEADPEAD0@Z
0x0007ffe0: ??_C@_08OBABFOLI@?
